

Microchip MPLAB XC8 Assembler V2.32 build 20210201212658 
                                                                                               Fri May 28 16:24:44 2021

Microchip MPLAB XC8 C Compiler v2.32 (Free license) build 20210201212658 Og1 
     1                           	processor	16F15244
     2                           	pagewidth 120
     3                           	opt	flic
     4                           	psect	nvBANK0,global,class=BANK0,space=1,delta=1,noexec
     5                           	psect	stringtext1,global,class=STRCODE,delta=2,noexec
     6                           	psect	stringtext2,global,class=STRCODE,delta=2,noexec
     7                           	psect	stringtext3,global,class=STRCODE,delta=2,noexec
     8                           	psect	stringtext4,global,class=STRCODE,delta=2,noexec
     9                           	psect	stringtext5,global,class=STRCODE,delta=2,noexec
    10                           	psect	stringtext6,global,class=STRCODE,delta=2,noexec
    11                           	psect	stringtext7,global,class=STRCODE,delta=2,noexec
    12                           	psect	stringtext8,global,class=STRCODE,delta=2,noexec
    13                           	psect	cinit,global,class=CODE,merge=1,delta=2
    14                           	psect	bssBANK0,global,class=BANK0,space=1,delta=1,noexec
    15                           	psect	clrtext,global,class=CODE,delta=2
    16                           	psect	cstackCOMMON,global,class=COMMON,space=1,delta=1,noexec
    17                           	psect	cstackBANK0,global,class=BANK0,space=1,delta=1,noexec
    18                           	psect	maintext,global,class=CODE,merge=1,split=1,delta=2
    19                           	psect	text1,local,class=CODE,merge=1,delta=2,group=3
    20                           	psect	text2,local,class=CODE,merge=1,delta=2,group=1
    21                           	psect	text3,local,class=CODE,merge=1,delta=2,group=1
    22                           	psect	text4,local,class=CODE,merge=1,delta=2,group=3
    23                           	psect	text5,local,class=CODE,merge=1,delta=2
    24                           	psect	text6,local,class=CODE,merge=1,delta=2
    25                           	psect	text7,local,class=CODE,merge=1,delta=2
    26                           	psect	text8,local,class=CODE,merge=1,delta=2
    27                           	psect	text9,local,class=CODE,merge=1,delta=2
    28                           	psect	text10,local,class=CODE,merge=1,delta=2
    29                           	psect	text11,local,class=CODE,merge=1,delta=2
    30                           	psect	text12,local,class=CODE,merge=1,delta=2
    31                           	psect	text13,local,class=CODE,merge=1,delta=2
    32                           	psect	text14,local,class=CODE,merge=1,delta=2
    33                           	psect	config,global,abs,ovrld,class=CONFIG,space=4,delta=2,noexec
    34                           	dabs	1,0x7E,2
    35  0000                     
    36                           ; Version 2.35
    37                           ; Generated 13/04/2021 GMT
    38                           ; 
    39                           ; Copyright © 2021, Microchip Technology Inc. and its subsidiaries ("Microchip")
    40                           ; All rights reserved.
    41                           ; 
    42                           ; This software is developed by Microchip Technology Inc. and its subsidiaries ("Microch
      +                          ip").
    43                           ; 
    44                           ; Redistribution and use in source and binary forms, with or without modification, are
    45                           ; permitted provided that the following conditions are met:
    46                           ; 
    47                           ;     1. Redistributions of source code must retain the above copyright notice, this lis
      +                          t of
    48                           ;        conditions and the following disclaimer.
    49                           ; 
    50                           ;     2. Redistributions in binary form must reproduce the above copyright notice, this 
      +                          list
    51                           ;        of conditions and the following disclaimer in the documentation and/or other
    52                           ;        materials provided with the distribution. Publication is not required when
    53                           ;        this file is used in an embedded application.
    54                           ; 
    55                           ;     3. Microchip's name may not be used to endorse or promote products derived from th
      +                          is
    56                           ;        software without specific prior written permission.
    57                           ; 
    58                           ; THIS SOFTWARE IS PROVIDED BY MICROCHIP "AS IS" AND ANY EXPRESS OR IMPLIED WARRANTIES,
    59                           ; INCLUDING, BUT NOT LIMITED TO, THE IMPLIED WARRANTIES OF MERCHANTABILITY AND FITNESS F
      +                          OR
    60                           ; PURPOSE ARE DISCLAIMED.  IN NO EVENT SHALL MICROCHIP BE LIABLE FOR ANY DIRECT, INDIREC
      +                          T,
    61                           ; INCIDENTAL, SPECIAL, EXEMPLARY, OR CONSEQUENTIAL DAMAGES (INCLUDING BUT NOT LIMITED TO
    62                           ; PROCUREMENT OF SUBSTITUTE GOODS OR SERVICES; LOSS OF USE, DATA OR PROFITS; OR BUSINESS
    63                           ; INTERRUPTION) HOWSOEVER CAUSED AND ON ANY THEORY OF LIABILITY, WHETHER IN CONTRACT, ST
      +                          RICT
    64                           ; LIABILITY, OR TORT (INCLUDING NEGLIGENCE OR OTHERWISE) ARISING IN ANY WAY OUT OF THE U
      +                          SE OF
    65                           ; THIS SOFTWARE, EVEN IF ADVISED OF THE POSSIBILITY OF SUCH DAMAGE.
    66                           ; 
    67                           ; 
    68                           ; Code-generator required, PIC16F15244 Definitions
    69                           ; 
    70                           ; SFR Addresses
    71  0000                     	;# 
    72  0001                     	;# 
    73  0002                     	;# 
    74  0003                     	;# 
    75  0004                     	;# 
    76  0005                     	;# 
    77  0006                     	;# 
    78  0007                     	;# 
    79  0008                     	;# 
    80  0009                     	;# 
    81  000A                     	;# 
    82  000B                     	;# 
    83  000C                     	;# 
    84  000D                     	;# 
    85  000E                     	;# 
    86  0012                     	;# 
    87  0013                     	;# 
    88  0014                     	;# 
    89  0018                     	;# 
    90  0019                     	;# 
    91  001A                     	;# 
    92  009A                     	;# 
    93  009B                     	;# 
    94  009B                     	;# 
    95  009C                     	;# 
    96  009D                     	;# 
    97  009E                     	;# 
    98  009F                     	;# 
    99  010C                     	;# 
   100  010D                     	;# 
   101  0119                     	;# 
   102  011A                     	;# 
   103  011B                     	;# 
   104  011B                     	;# 
   105  011C                     	;# 
   106  011D                     	;# 
   107  011E                     	;# 
   108  011F                     	;# 
   109  018C                     	;# 
   110  018D                     	;# 
   111  018E                     	;# 
   112  018F                     	;# 
   113  0190                     	;# 
   114  0191                     	;# 
   115  0192                     	;# 
   116  020C                     	;# 
   117  020D                     	;# 
   118  020E                     	;# 
   119  020E                     	;# 
   120  020F                     	;# 
   121  020F                     	;# 
   122  0210                     	;# 
   123  0210                     	;# 
   124  0211                     	;# 
   125  0211                     	;# 
   126  028C                     	;# 
   127  028C                     	;# 
   128  028D                     	;# 
   129  028D                     	;# 
   130  028E                     	;# 
   131  028F                     	;# 
   132  0290                     	;# 
   133  0291                     	;# 
   134  030C                     	;# 
   135  030C                     	;# 
   136  030D                     	;# 
   137  030E                     	;# 
   138  030F                     	;# 
   139  0310                     	;# 
   140  0310                     	;# 
   141  0311                     	;# 
   142  0312                     	;# 
   143  0313                     	;# 
   144  0314                     	;# 
   145  0314                     	;# 
   146  0315                     	;# 
   147  0316                     	;# 
   148  0318                     	;# 
   149  0318                     	;# 
   150  0319                     	;# 
   151  031A                     	;# 
   152  059C                     	;# 
   153  059C                     	;# 
   154  059D                     	;# 
   155  059D                     	;# 
   156  059E                     	;# 
   157  059F                     	;# 
   158  070C                     	;# 
   159  070D                     	;# 
   160  070E                     	;# 
   161  0716                     	;# 
   162  0717                     	;# 
   163  0718                     	;# 
   164  080C                     	;# 
   165  0811                     	;# 
   166  0813                     	;# 
   167  0814                     	;# 
   168  081A                     	;# 
   169  081A                     	;# 
   170  081B                     	;# 
   171  081C                     	;# 
   172  081C                     	;# 
   173  081D                     	;# 
   174  081E                     	;# 
   175  081F                     	;# 
   176  088E                     	;# 
   177  0890                     	;# 
   178  0891                     	;# 
   179  0892                     	;# 
   180  0893                     	;# 
   181  090C                     	;# 
   182  1E8F                     	;# 
   183  1E90                     	;# 
   184  1E91                     	;# 
   185  1E92                     	;# 
   186  1E93                     	;# 
   187  1E9C                     	;# 
   188  1EA1                     	;# 
   189  1EA2                     	;# 
   190  1EC3                     	;# 
   191  1EC5                     	;# 
   192  1EC6                     	;# 
   193  1EC7                     	;# 
   194  1ECB                     	;# 
   195  1ECB                     	;# 
   196  1ECB                     	;# 
   197  1ECC                     	;# 
   198  1ECC                     	;# 
   199  1ECC                     	;# 
   200  1F10                     	;# 
   201  1F11                     	;# 
   202  1F12                     	;# 
   203  1F14                     	;# 
   204  1F15                     	;# 
   205  1F1C                     	;# 
   206  1F1D                     	;# 
   207  1F1E                     	;# 
   208  1F1F                     	;# 
   209  1F20                     	;# 
   210  1F21                     	;# 
   211  1F22                     	;# 
   212  1F23                     	;# 
   213  1F24                     	;# 
   214  1F25                     	;# 
   215  1F26                     	;# 
   216  1F27                     	;# 
   217  1F38                     	;# 
   218  1F39                     	;# 
   219  1F3A                     	;# 
   220  1F3B                     	;# 
   221  1F3C                     	;# 
   222  1F3D                     	;# 
   223  1F3E                     	;# 
   224  1F3F                     	;# 
   225  1F43                     	;# 
   226  1F44                     	;# 
   227  1F45                     	;# 
   228  1F46                     	;# 
   229  1F47                     	;# 
   230  1F48                     	;# 
   231  1F49                     	;# 
   232  1F4A                     	;# 
   233  1F4E                     	;# 
   234  1F4F                     	;# 
   235  1F50                     	;# 
   236  1F51                     	;# 
   237  1F52                     	;# 
   238  1F53                     	;# 
   239  1F54                     	;# 
   240  1F55                     	;# 
   241  1FE4                     	;# 
   242  1FE5                     	;# 
   243  1FE6                     	;# 
   244  1FE7                     	;# 
   245  1FE8                     	;# 
   246  1FE8                     	;# 
   247  1FE9                     	;# 
   248  1FEA                     	;# 
   249  1FEB                     	;# 
   250  1FED                     	;# 
   251  1FEE                     	;# 
   252  1FEF                     	;# 
   253  0000                     	;# 
   254  0001                     	;# 
   255  0002                     	;# 
   256  0003                     	;# 
   257  0004                     	;# 
   258  0005                     	;# 
   259  0006                     	;# 
   260  0007                     	;# 
   261  0008                     	;# 
   262  0009                     	;# 
   263  000A                     	;# 
   264  000B                     	;# 
   265  000C                     	;# 
   266  000D                     	;# 
   267  000E                     	;# 
   268  0012                     	;# 
   269  0013                     	;# 
   270  0014                     	;# 
   271  0018                     	;# 
   272  0019                     	;# 
   273  001A                     	;# 
   274  009A                     	;# 
   275  009B                     	;# 
   276  009B                     	;# 
   277  009C                     	;# 
   278  009D                     	;# 
   279  009E                     	;# 
   280  009F                     	;# 
   281  010C                     	;# 
   282  010D                     	;# 
   283  0119                     	;# 
   284  011A                     	;# 
   285  011B                     	;# 
   286  011B                     	;# 
   287  011C                     	;# 
   288  011D                     	;# 
   289  011E                     	;# 
   290  011F                     	;# 
   291  018C                     	;# 
   292  018D                     	;# 
   293  018E                     	;# 
   294  018F                     	;# 
   295  0190                     	;# 
   296  0191                     	;# 
   297  0192                     	;# 
   298  020C                     	;# 
   299  020D                     	;# 
   300  020E                     	;# 
   301  020E                     	;# 
   302  020F                     	;# 
   303  020F                     	;# 
   304  0210                     	;# 
   305  0210                     	;# 
   306  0211                     	;# 
   307  0211                     	;# 
   308  028C                     	;# 
   309  028C                     	;# 
   310  028D                     	;# 
   311  028D                     	;# 
   312  028E                     	;# 
   313  028F                     	;# 
   314  0290                     	;# 
   315  0291                     	;# 
   316  030C                     	;# 
   317  030C                     	;# 
   318  030D                     	;# 
   319  030E                     	;# 
   320  030F                     	;# 
   321  0310                     	;# 
   322  0310                     	;# 
   323  0311                     	;# 
   324  0312                     	;# 
   325  0313                     	;# 
   326  0314                     	;# 
   327  0314                     	;# 
   328  0315                     	;# 
   329  0316                     	;# 
   330  0318                     	;# 
   331  0318                     	;# 
   332  0319                     	;# 
   333  031A                     	;# 
   334  059C                     	;# 
   335  059C                     	;# 
   336  059D                     	;# 
   337  059D                     	;# 
   338  059E                     	;# 
   339  059F                     	;# 
   340  070C                     	;# 
   341  070D                     	;# 
   342  070E                     	;# 
   343  0716                     	;# 
   344  0717                     	;# 
   345  0718                     	;# 
   346  080C                     	;# 
   347  0811                     	;# 
   348  0813                     	;# 
   349  0814                     	;# 
   350  081A                     	;# 
   351  081A                     	;# 
   352  081B                     	;# 
   353  081C                     	;# 
   354  081C                     	;# 
   355  081D                     	;# 
   356  081E                     	;# 
   357  081F                     	;# 
   358  088E                     	;# 
   359  0890                     	;# 
   360  0891                     	;# 
   361  0892                     	;# 
   362  0893                     	;# 
   363  090C                     	;# 
   364  1E8F                     	;# 
   365  1E90                     	;# 
   366  1E91                     	;# 
   367  1E92                     	;# 
   368  1E93                     	;# 
   369  1E9C                     	;# 
   370  1EA1                     	;# 
   371  1EA2                     	;# 
   372  1EC3                     	;# 
   373  1EC5                     	;# 
   374  1EC6                     	;# 
   375  1EC7                     	;# 
   376  1ECB                     	;# 
   377  1ECB                     	;# 
   378  1ECB                     	;# 
   379  1ECC                     	;# 
   380  1ECC                     	;# 
   381  1ECC                     	;# 
   382  1F10                     	;# 
   383  1F11                     	;# 
   384  1F12                     	;# 
   385  1F14                     	;# 
   386  1F15                     	;# 
   387  1F1C                     	;# 
   388  1F1D                     	;# 
   389  1F1E                     	;# 
   390  1F1F                     	;# 
   391  1F20                     	;# 
   392  1F21                     	;# 
   393  1F22                     	;# 
   394  1F23                     	;# 
   395  1F24                     	;# 
   396  1F25                     	;# 
   397  1F26                     	;# 
   398  1F27                     	;# 
   399  1F38                     	;# 
   400  1F39                     	;# 
   401  1F3A                     	;# 
   402  1F3B                     	;# 
   403  1F3C                     	;# 
   404  1F3D                     	;# 
   405  1F3E                     	;# 
   406  1F3F                     	;# 
   407  1F43                     	;# 
   408  1F44                     	;# 
   409  1F45                     	;# 
   410  1F46                     	;# 
   411  1F47                     	;# 
   412  1F48                     	;# 
   413  1F49                     	;# 
   414  1F4A                     	;# 
   415  1F4E                     	;# 
   416  1F4F                     	;# 
   417  1F50                     	;# 
   418  1F51                     	;# 
   419  1F52                     	;# 
   420  1F53                     	;# 
   421  1F54                     	;# 
   422  1F55                     	;# 
   423  1FE4                     	;# 
   424  1FE5                     	;# 
   425  1FE6                     	;# 
   426  1FE7                     	;# 
   427  1FE8                     	;# 
   428  1FE8                     	;# 
   429  1FE9                     	;# 
   430  1FEA                     	;# 
   431  1FEB                     	;# 
   432  1FED                     	;# 
   433  1FEE                     	;# 
   434  1FEF                     	;# 
   435  0000                     	;# 
   436  0001                     	;# 
   437  0002                     	;# 
   438  0003                     	;# 
   439  0004                     	;# 
   440  0005                     	;# 
   441  0006                     	;# 
   442  0007                     	;# 
   443  0008                     	;# 
   444  0009                     	;# 
   445  000A                     	;# 
   446  000B                     	;# 
   447  000C                     	;# 
   448  000D                     	;# 
   449  000E                     	;# 
   450  0012                     	;# 
   451  0013                     	;# 
   452  0014                     	;# 
   453  0018                     	;# 
   454  0019                     	;# 
   455  001A                     	;# 
   456  009A                     	;# 
   457  009B                     	;# 
   458  009B                     	;# 
   459  009C                     	;# 
   460  009D                     	;# 
   461  009E                     	;# 
   462  009F                     	;# 
   463  010C                     	;# 
   464  010D                     	;# 
   465  0119                     	;# 
   466  011A                     	;# 
   467  011B                     	;# 
   468  011B                     	;# 
   469  011C                     	;# 
   470  011D                     	;# 
   471  011E                     	;# 
   472  011F                     	;# 
   473  018C                     	;# 
   474  018D                     	;# 
   475  018E                     	;# 
   476  018F                     	;# 
   477  0190                     	;# 
   478  0191                     	;# 
   479  0192                     	;# 
   480  020C                     	;# 
   481  020D                     	;# 
   482  020E                     	;# 
   483  020E                     	;# 
   484  020F                     	;# 
   485  020F                     	;# 
   486  0210                     	;# 
   487  0210                     	;# 
   488  0211                     	;# 
   489  0211                     	;# 
   490  028C                     	;# 
   491  028C                     	;# 
   492  028D                     	;# 
   493  028D                     	;# 
   494  028E                     	;# 
   495  028F                     	;# 
   496  0290                     	;# 
   497  0291                     	;# 
   498  030C                     	;# 
   499  030C                     	;# 
   500  030D                     	;# 
   501  030E                     	;# 
   502  030F                     	;# 
   503  0310                     	;# 
   504  0310                     	;# 
   505  0311                     	;# 
   506  0312                     	;# 
   507  0313                     	;# 
   508  0314                     	;# 
   509  0314                     	;# 
   510  0315                     	;# 
   511  0316                     	;# 
   512  0318                     	;# 
   513  0318                     	;# 
   514  0319                     	;# 
   515  031A                     	;# 
   516  059C                     	;# 
   517  059C                     	;# 
   518  059D                     	;# 
   519  059D                     	;# 
   520  059E                     	;# 
   521  059F                     	;# 
   522  070C                     	;# 
   523  070D                     	;# 
   524  070E                     	;# 
   525  0716                     	;# 
   526  0717                     	;# 
   527  0718                     	;# 
   528  080C                     	;# 
   529  0811                     	;# 
   530  0813                     	;# 
   531  0814                     	;# 
   532  081A                     	;# 
   533  081A                     	;# 
   534  081B                     	;# 
   535  081C                     	;# 
   536  081C                     	;# 
   537  081D                     	;# 
   538  081E                     	;# 
   539  081F                     	;# 
   540  088E                     	;# 
   541  0890                     	;# 
   542  0891                     	;# 
   543  0892                     	;# 
   544  0893                     	;# 
   545  090C                     	;# 
   546  1E8F                     	;# 
   547  1E90                     	;# 
   548  1E91                     	;# 
   549  1E92                     	;# 
   550  1E93                     	;# 
   551  1E9C                     	;# 
   552  1EA1                     	;# 
   553  1EA2                     	;# 
   554  1EC3                     	;# 
   555  1EC5                     	;# 
   556  1EC6                     	;# 
   557  1EC7                     	;# 
   558  1ECB                     	;# 
   559  1ECB                     	;# 
   560  1ECB                     	;# 
   561  1ECC                     	;# 
   562  1ECC                     	;# 
   563  1ECC                     	;# 
   564  1F10                     	;# 
   565  1F11                     	;# 
   566  1F12                     	;# 
   567  1F14                     	;# 
   568  1F15                     	;# 
   569  1F1C                     	;# 
   570  1F1D                     	;# 
   571  1F1E                     	;# 
   572  1F1F                     	;# 
   573  1F20                     	;# 
   574  1F21                     	;# 
   575  1F22                     	;# 
   576  1F23                     	;# 
   577  1F24                     	;# 
   578  1F25                     	;# 
   579  1F26                     	;# 
   580  1F27                     	;# 
   581  1F38                     	;# 
   582  1F39                     	;# 
   583  1F3A                     	;# 
   584  1F3B                     	;# 
   585  1F3C                     	;# 
   586  1F3D                     	;# 
   587  1F3E                     	;# 
   588  1F3F                     	;# 
   589  1F43                     	;# 
   590  1F44                     	;# 
   591  1F45                     	;# 
   592  1F46                     	;# 
   593  1F47                     	;# 
   594  1F48                     	;# 
   595  1F49                     	;# 
   596  1F4A                     	;# 
   597  1F4E                     	;# 
   598  1F4F                     	;# 
   599  1F50                     	;# 
   600  1F51                     	;# 
   601  1F52                     	;# 
   602  1F53                     	;# 
   603  1F54                     	;# 
   604  1F55                     	;# 
   605  1FE4                     	;# 
   606  1FE5                     	;# 
   607  1FE6                     	;# 
   608  1FE7                     	;# 
   609  1FE8                     	;# 
   610  1FE8                     	;# 
   611  1FE9                     	;# 
   612  1FEA                     	;# 
   613  1FEB                     	;# 
   614  1FED                     	;# 
   615  1FEE                     	;# 
   616  1FEF                     	;# 
   617  0000                     	;# 
   618  0001                     	;# 
   619  0002                     	;# 
   620  0003                     	;# 
   621  0004                     	;# 
   622  0005                     	;# 
   623  0006                     	;# 
   624  0007                     	;# 
   625  0008                     	;# 
   626  0009                     	;# 
   627  000A                     	;# 
   628  000B                     	;# 
   629  000C                     	;# 
   630  000D                     	;# 
   631  000E                     	;# 
   632  0012                     	;# 
   633  0013                     	;# 
   634  0014                     	;# 
   635  0018                     	;# 
   636  0019                     	;# 
   637  001A                     	;# 
   638  009A                     	;# 
   639  009B                     	;# 
   640  009B                     	;# 
   641  009C                     	;# 
   642  009D                     	;# 
   643  009E                     	;# 
   644  009F                     	;# 
   645  010C                     	;# 
   646  010D                     	;# 
   647  0119                     	;# 
   648  011A                     	;# 
   649  011B                     	;# 
   650  011B                     	;# 
   651  011C                     	;# 
   652  011D                     	;# 
   653  011E                     	;# 
   654  011F                     	;# 
   655  018C                     	;# 
   656  018D                     	;# 
   657  018E                     	;# 
   658  018F                     	;# 
   659  0190                     	;# 
   660  0191                     	;# 
   661  0192                     	;# 
   662  020C                     	;# 
   663  020D                     	;# 
   664  020E                     	;# 
   665  020E                     	;# 
   666  020F                     	;# 
   667  020F                     	;# 
   668  0210                     	;# 
   669  0210                     	;# 
   670  0211                     	;# 
   671  0211                     	;# 
   672  028C                     	;# 
   673  028C                     	;# 
   674  028D                     	;# 
   675  028D                     	;# 
   676  028E                     	;# 
   677  028F                     	;# 
   678  0290                     	;# 
   679  0291                     	;# 
   680  030C                     	;# 
   681  030C                     	;# 
   682  030D                     	;# 
   683  030E                     	;# 
   684  030F                     	;# 
   685  0310                     	;# 
   686  0310                     	;# 
   687  0311                     	;# 
   688  0312                     	;# 
   689  0313                     	;# 
   690  0314                     	;# 
   691  0314                     	;# 
   692  0315                     	;# 
   693  0316                     	;# 
   694  0318                     	;# 
   695  0318                     	;# 
   696  0319                     	;# 
   697  031A                     	;# 
   698  059C                     	;# 
   699  059C                     	;# 
   700  059D                     	;# 
   701  059D                     	;# 
   702  059E                     	;# 
   703  059F                     	;# 
   704  070C                     	;# 
   705  070D                     	;# 
   706  070E                     	;# 
   707  0716                     	;# 
   708  0717                     	;# 
   709  0718                     	;# 
   710  080C                     	;# 
   711  0811                     	;# 
   712  0813                     	;# 
   713  0814                     	;# 
   714  081A                     	;# 
   715  081A                     	;# 
   716  081B                     	;# 
   717  081C                     	;# 
   718  081C                     	;# 
   719  081D                     	;# 
   720  081E                     	;# 
   721  081F                     	;# 
   722  088E                     	;# 
   723  0890                     	;# 
   724  0891                     	;# 
   725  0892                     	;# 
   726  0893                     	;# 
   727  090C                     	;# 
   728  1E8F                     	;# 
   729  1E90                     	;# 
   730  1E91                     	;# 
   731  1E92                     	;# 
   732  1E93                     	;# 
   733  1E9C                     	;# 
   734  1EA1                     	;# 
   735  1EA2                     	;# 
   736  1EC3                     	;# 
   737  1EC5                     	;# 
   738  1EC6                     	;# 
   739  1EC7                     	;# 
   740  1ECB                     	;# 
   741  1ECB                     	;# 
   742  1ECB                     	;# 
   743  1ECC                     	;# 
   744  1ECC                     	;# 
   745  1ECC                     	;# 
   746  1F10                     	;# 
   747  1F11                     	;# 
   748  1F12                     	;# 
   749  1F14                     	;# 
   750  1F15                     	;# 
   751  1F1C                     	;# 
   752  1F1D                     	;# 
   753  1F1E                     	;# 
   754  1F1F                     	;# 
   755  1F20                     	;# 
   756  1F21                     	;# 
   757  1F22                     	;# 
   758  1F23                     	;# 
   759  1F24                     	;# 
   760  1F25                     	;# 
   761  1F26                     	;# 
   762  1F27                     	;# 
   763  1F38                     	;# 
   764  1F39                     	;# 
   765  1F3A                     	;# 
   766  1F3B                     	;# 
   767  1F3C                     	;# 
   768  1F3D                     	;# 
   769  1F3E                     	;# 
   770  1F3F                     	;# 
   771  1F43                     	;# 
   772  1F44                     	;# 
   773  1F45                     	;# 
   774  1F46                     	;# 
   775  1F47                     	;# 
   776  1F48                     	;# 
   777  1F49                     	;# 
   778  1F4A                     	;# 
   779  1F4E                     	;# 
   780  1F4F                     	;# 
   781  1F50                     	;# 
   782  1F51                     	;# 
   783  1F52                     	;# 
   784  1F53                     	;# 
   785  1F54                     	;# 
   786  1F55                     	;# 
   787  1FE4                     	;# 
   788  1FE5                     	;# 
   789  1FE6                     	;# 
   790  1FE7                     	;# 
   791  1FE8                     	;# 
   792  1FE8                     	;# 
   793  1FE9                     	;# 
   794  1FEA                     	;# 
   795  1FEB                     	;# 
   796  1FED                     	;# 
   797  1FEE                     	;# 
   798  1FEF                     	;# 
   799                           
   800 ;; Function _EUSART1_DefaultFramingErrorHandler is unused but had its address taken
   801  0000                     
   802 ;; Function _EUSART1_DefaultOverrunErrorHandler is unused but had its address taken
   803  0000                     
   804 ;; Function _EUSART1_DefaultErrorHandler is unused but had its address taken
   805  0000                     
   806                           	psect	nvBANK0
   807  005E                     __pnvBANK0:
   808  005E                     _EUSART1_ErrorHandler:
   809  005E                     	ds	2
   810  0060                     _EUSART1_OverrunErrorHandler:
   811  0060                     	ds	2
   812  0062                     _EUSART1_FramingErrorHandler:
   813  0062                     	ds	2
   814  000E                     _PORTCbits	set	14
   815  000D                     _PORTBbits	set	13
   816  0014                     _TRISC	set	20
   817  0013                     _TRISB	set	19
   818  0012                     _TRISA	set	18
   819  001A                     _LATC	set	26
   820  0019                     _LATB	set	25
   821  0018                     _LATA	set	24
   822  011A                     _TX1REG	set	282
   823  0119                     _RC1REG	set	281
   824  011D                     _RC1STAbits	set	285
   825  011E                     _TX1STAbits	set	286
   826  011C                     _SP1BRGH	set	284
   827  011B                     _SP1BRGL	set	283
   828  011E                     _TX1STA	set	286
   829  011D                     _RC1STA	set	285
   830  011F                     _BAUD1CON	set	287
   831  070D                     _PIR1bits	set	1805
   832  080C                     _WDTCON	set	2060
   833  0892                     _OSCTUNE	set	2194
   834  0893                     _OSCFRQ	set	2195
   835  0891                     _OSCEN	set	2193
   836  1ECB                     _RX1PPS	set	7883
   837  1F20                     _RC0PPS	set	7968
   838  1F52                     _INLVLC	set	8018
   839  1F47                     _INLVLB	set	8007
   840  1F3C                     _INLVLA	set	7996
   841  1F51                     _SLRCONC	set	8017
   842  1F46                     _SLRCONB	set	8006
   843  1F3B                     _SLRCONA	set	7995
   844  1F50                     _ODCONC	set	8016
   845  1F45                     _ODCONB	set	8005
   846  1F3A                     _ODCONA	set	7994
   847  1F4F                     _WPUC	set	8015
   848  1F39                     _WPUA	set	7993
   849  1F44                     _WPUB	set	8004
   850  1F38                     _ANSELA	set	7992
   851  1F43                     _ANSELB	set	8003
   852  1F4E                     _ANSELC	set	8014
   853                           
   854                           	psect	stringtext1
   855  0800                     __pstringtext1:
   856  0800                     STR_3:
   857  0800  342D               	retlw	45	;'-'
   858  0801  342D               	retlw	45	;'-'
   859  0802  342D               	retlw	45	;'-'
   860  0803  342D               	retlw	45	;'-'
   861  0804  342D               	retlw	45	;'-'
   862  0805  342D               	retlw	45	;'-'
   863  0806  342D               	retlw	45	;'-'
   864  0807  342D               	retlw	45	;'-'
   865  0808  342D               	retlw	45	;'-'
   866  0809  342D               	retlw	45	;'-'
   867  080A  342D               	retlw	45	;'-'
   868  080B  342D               	retlw	45	;'-'
   869  080C  342D               	retlw	45	;'-'
   870  080D  342D               	retlw	45	;'-'
   871  080E  342D               	retlw	45	;'-'
   872  080F  342D               	retlw	45	;'-'
   873  0810  342D               	retlw	45	;'-'
   874  0811  342D               	retlw	45	;'-'
   875  0812  342D               	retlw	45	;'-'
   876  0813  342D               	retlw	45	;'-'
   877  0814  342D               	retlw	45	;'-'
   878  0815  342D               	retlw	45	;'-'
   879  0816  342D               	retlw	45	;'-'
   880  0817  342D               	retlw	45	;'-'
   881  0818  342D               	retlw	45	;'-'
   882  0819  342D               	retlw	45	;'-'
   883  081A  342D               	retlw	45	;'-'
   884  081B  342D               	retlw	45	;'-'
   885  081C  342D               	retlw	45	;'-'
   886  081D  342D               	retlw	45	;'-'
   887  081E  342D               	retlw	45	;'-'
   888  081F  342D               	retlw	45	;'-'
   889  0820  342D               	retlw	45	;'-'
   890  0821  342D               	retlw	45	;'-'
   891  0822  342D               	retlw	45	;'-'
   892  0823  342D               	retlw	45	;'-'
   893  0824  342D               	retlw	45	;'-'
   894  0825  342D               	retlw	45	;'-'
   895  0826  342D               	retlw	45	;'-'
   896  0827  342D               	retlw	45	;'-'
   897  0828  342D               	retlw	45	;'-'
   898  0829  342D               	retlw	45	;'-'
   899  082A  342D               	retlw	45	;'-'
   900  082B  342D               	retlw	45	;'-'
   901  082C  342D               	retlw	45	;'-'
   902  082D  342D               	retlw	45	;'-'
   903  082E  3420               	retlw	32	;' '
   904  082F  340A               	retlw	10
   905  0830  340D               	retlw	13
   906  0831  3400               	retlw	0
   907                           
   908                           	psect	stringtext2
   909  0832                     __pstringtext2:
   910  0832                     STR_4:
   911  0832  3445               	retlw	69	;'E'
   912  0833  346C               	retlw	108	;'l'
   913  0834  3420               	retlw	32	;' '
   914  0835  3464               	retlw	100	;'d'
   915  0836  3469               	retlw	105	;'i'
   916  0837  3473               	retlw	115	;'s'
   917  0838  3470               	retlw	112	;'p'
   918  0839  346F               	retlw	111	;'o'
   919  083A  3473               	retlw	115	;'s'
   920  083B  3469               	retlw	105	;'i'
   921  083C  3474               	retlw	116	;'t'
   922  083D  3469               	retlw	105	;'i'
   923  083E  3476               	retlw	118	;'v'
   924  083F  346F               	retlw	111	;'o'
   925  0840  3420               	retlw	32	;' '
   926  0841  3465               	retlw	101	;'e'
   927  0842  3473               	retlw	115	;'s'
   928  0843  3474               	retlw	116	;'t'
   929  0844  343F               	retlw	63	;'?'
   930  0845  3420               	retlw	32	;' '
   931  0846  3467               	retlw	103	;'g'
   932  0847  3469               	retlw	105	;'i'
   933  0848  3472               	retlw	114	;'r'
   934  0849  3461               	retlw	97	;'a'
   935  084A  346E               	retlw	110	;'n'
   936  084B  3464               	retlw	100	;'d'
   937  084C  346F               	retlw	111	;'o'
   938  084D  3420               	retlw	32	;' '
   939  084E  3461               	retlw	97	;'a'
   940  084F  3420               	retlw	32	;' '
   941  0850  346C               	retlw	108	;'l'
   942  0851  3461               	retlw	97	;'a'
   943  0852  3420               	retlw	32	;' '
   944  0853  3469               	retlw	105	;'i'
   945  0854  347A               	retlw	122	;'z'
   946  0855  3471               	retlw	113	;'q'
   947  0856  3475               	retlw	117	;'u'
   948  0857  3469               	retlw	105	;'i'
   949  0858  3465               	retlw	101	;'e'
   950  0859  3472               	retlw	114	;'r'
   951  085A  3464               	retlw	100	;'d'
   952  085B  3461               	retlw	97	;'a'
   953  085C  3420               	retlw	32	;' '
   954  085D  340A               	retlw	10
   955  085E  340D               	retlw	13
   956  085F  3400               	retlw	0
   957                           
   958                           	psect	stringtext3
   959  0860                     __pstringtext3:
   960  0860                     STR_2:
   961  0860  3445               	retlw	69	;'E'
   962  0861  346C               	retlw	108	;'l'
   963  0862  3420               	retlw	32	;' '
   964  0863  3464               	retlw	100	;'d'
   965  0864  3469               	retlw	105	;'i'
   966  0865  3473               	retlw	115	;'s'
   967  0866  3470               	retlw	112	;'p'
   968  0867  346F               	retlw	111	;'o'
   969  0868  3473               	retlw	115	;'s'
   970  0869  3469               	retlw	105	;'i'
   971  086A  3474               	retlw	116	;'t'
   972  086B  3469               	retlw	105	;'i'
   973  086C  3476               	retlw	118	;'v'
   974  086D  346F               	retlw	111	;'o'
   975  086E  3420               	retlw	32	;' '
   976  086F  3465               	retlw	101	;'e'
   977  0870  3473               	retlw	115	;'s'
   978  0871  3474               	retlw	116	;'t'
   979  0872  343F               	retlw	63	;'?'
   980  0873  3420               	retlw	32	;' '
   981  0874  3467               	retlw	103	;'g'
   982  0875  3469               	retlw	105	;'i'
   983  0876  3472               	retlw	114	;'r'
   984  0877  3461               	retlw	97	;'a'
   985  0878  346E               	retlw	110	;'n'
   986  0879  3464               	retlw	100	;'d'
   987  087A  346F               	retlw	111	;'o'
   988  087B  3420               	retlw	32	;' '
   989  087C  3461               	retlw	97	;'a'
   990  087D  3420               	retlw	32	;' '
   991  087E  346C               	retlw	108	;'l'
   992  087F  3461               	retlw	97	;'a'
   993  0880  3420               	retlw	32	;' '
   994  0881  3464               	retlw	100	;'d'
   995  0882  3465               	retlw	101	;'e'
   996  0883  3472               	retlw	114	;'r'
   997  0884  3465               	retlw	101	;'e'
   998  0885  3463               	retlw	99	;'c'
   999  0886  3468               	retlw	104	;'h'
  1000  0887  3461               	retlw	97	;'a'
  1001  0888  3420               	retlw	32	;' '
  1002  0889  340A               	retlw	10
  1003  088A  340D               	retlw	13
  1004  088B  3400               	retlw	0
  1005                           
  1006                           	psect	stringtext4
  1007  088C                     __pstringtext4:
  1008  088C                     STR_8:
  1009  088C  3445               	retlw	69	;'E'
  1010  088D  346C               	retlw	108	;'l'
  1011  088E  3420               	retlw	32	;' '
  1012  088F  3444               	retlw	68	;'D'
  1013  0890  3469               	retlw	105	;'i'
  1014  0891  3473               	retlw	115	;'s'
  1015  0892  3470               	retlw	112	;'p'
  1016  0893  346F               	retlw	111	;'o'
  1017  0894  3473               	retlw	115	;'s'
  1018  0895  3469               	retlw	105	;'i'
  1019  0896  3474               	retlw	116	;'t'
  1020  0897  3469               	retlw	105	;'i'
  1021  0898  3476               	retlw	118	;'v'
  1022  0899  346F               	retlw	111	;'o'
  1023  089A  3420               	retlw	32	;' '
  1024  089B  3465               	retlw	101	;'e'
  1025  089C  3473               	retlw	115	;'s'
  1026  089D  3474               	retlw	116	;'t'
  1027  089E  343F               	retlw	63	;'?'
  1028  089F  3420               	retlw	32	;' '
  1029  08A0  3472               	retlw	114	;'r'
  1030  08A1  3465               	retlw	101	;'e'
  1031  08A2  3474               	retlw	116	;'t'
  1032  08A3  3472               	retlw	114	;'r'
  1033  08A4  346F               	retlw	111	;'o'
  1034  08A5  3463               	retlw	99	;'c'
  1035  08A6  3465               	retlw	101	;'e'
  1036  08A7  3464               	retlw	100	;'d'
  1037  08A8  3469               	retlw	105	;'i'
  1038  08A9  3465               	retlw	101	;'e'
  1039  08AA  346E               	retlw	110	;'n'
  1040  08AB  3464               	retlw	100	;'d'
  1041  08AC  346F               	retlw	111	;'o'
  1042  08AD  3420               	retlw	32	;' '
  1043  08AE  340A               	retlw	10
  1044  08AF  340D               	retlw	13
  1045  08B0  3400               	retlw	0
  1046                           
  1047                           	psect	stringtext5
  1048  08B1                     __pstringtext5:
  1049  08B1                     STR_6:
  1050  08B1  3445               	retlw	69	;'E'
  1051  08B2  346C               	retlw	108	;'l'
  1052  08B3  3420               	retlw	32	;' '
  1053  08B4  3444               	retlw	68	;'D'
  1054  08B5  3469               	retlw	105	;'i'
  1055  08B6  3473               	retlw	115	;'s'
  1056  08B7  3470               	retlw	112	;'p'
  1057  08B8  346F               	retlw	111	;'o'
  1058  08B9  3473               	retlw	115	;'s'
  1059  08BA  3469               	retlw	105	;'i'
  1060  08BB  3474               	retlw	116	;'t'
  1061  08BC  3469               	retlw	105	;'i'
  1062  08BD  3476               	retlw	118	;'v'
  1063  08BE  346F               	retlw	111	;'o'
  1064  08BF  3420               	retlw	32	;' '
  1065  08C0  3465               	retlw	101	;'e'
  1066  08C1  3473               	retlw	115	;'s'
  1067  08C2  3474               	retlw	116	;'t'
  1068  08C3  343F               	retlw	63	;'?'
  1069  08C4  3420               	retlw	32	;' '
  1070  08C5  3461               	retlw	97	;'a'
  1071  08C6  3476               	retlw	118	;'v'
  1072  08C7  3461               	retlw	97	;'a'
  1073  08C8  346E               	retlw	110	;'n'
  1074  08C9  347A               	retlw	122	;'z'
  1075  08CA  3461               	retlw	97	;'a'
  1076  08CB  346E               	retlw	110	;'n'
  1077  08CC  3464               	retlw	100	;'d'
  1078  08CD  346F               	retlw	111	;'o'
  1079  08CE  3420               	retlw	32	;' '
  1080  08CF  340A               	retlw	10
  1081  08D0  340D               	retlw	13
  1082  08D1  3400               	retlw	0
  1083                           
  1084                           	psect	stringtext6
  1085  08D2                     __pstringtext6:
  1086  08D2                     STR_10:
  1087  08D2  3445               	retlw	69	;'E'
  1088  08D3  346C               	retlw	108	;'l'
  1089  08D4  3420               	retlw	32	;' '
  1090  08D5  3444               	retlw	68	;'D'
  1091  08D6  3469               	retlw	105	;'i'
  1092  08D7  3473               	retlw	115	;'s'
  1093  08D8  3470               	retlw	112	;'p'
  1094  08D9  346F               	retlw	111	;'o'
  1095  08DA  3473               	retlw	115	;'s'
  1096  08DB  3469               	retlw	105	;'i'
  1097  08DC  3474               	retlw	116	;'t'
  1098  08DD  3469               	retlw	105	;'i'
  1099  08DE  3476               	retlw	118	;'v'
  1100  08DF  346F               	retlw	111	;'o'
  1101  08E0  3420               	retlw	32	;' '
  1102  08E1  3465               	retlw	101	;'e'
  1103  08E2  3473               	retlw	115	;'s'
  1104  08E3  3474               	retlw	116	;'t'
  1105  08E4  343F               	retlw	63	;'?'
  1106  08E5  3420               	retlw	32	;' '
  1107  08E6  3464               	retlw	100	;'d'
  1108  08E7  3465               	retlw	101	;'e'
  1109  08E8  3474               	retlw	116	;'t'
  1110  08E9  3465               	retlw	101	;'e'
  1111  08EA  346E               	retlw	110	;'n'
  1112  08EB  3469               	retlw	105	;'i'
  1113  08EC  3464               	retlw	100	;'d'
  1114  08ED  346F               	retlw	111	;'o'
  1115  08EE  3420               	retlw	32	;' '
  1116  08EF  340A               	retlw	10
  1117  08F0  340D               	retlw	13
  1118  08F1  3400               	retlw	0
  1119                           
  1120                           	psect	stringtext7
  1121  08F2                     __pstringtext7:
  1122  08F2                     STR_1:
  1123  08F2  3449               	retlw	73	;'I'
  1124  08F3  344E               	retlw	78	;'N'
  1125  08F4  3449               	retlw	73	;'I'
  1126  08F5  3443               	retlw	67	;'C'
  1127  08F6  3449               	retlw	73	;'I'
  1128  08F7  344F               	retlw	79	;'O'
  1129  08F8  3420               	retlw	32	;' '
  1130  08F9  340A               	retlw	10
  1131  08FA  340D               	retlw	13
  1132  08FB  3400               	retlw	0
  1133                           
  1134                           	psect	stringtext8
  1135  0000                     __pstringtext8:
  1136  0800                     
  1137                           	psect	cinit
  1138  07F5                     start_initialization:	
  1139                           ; #config settings
  1140                           
  1141  07F5                     __initialization:
  1142                           
  1143                           ; Clear objects allocated to BANK0
  1144  07F5  3020               	movlw	low __pbssBANK0
  1145  07F6  0084               	movwf	4
  1146  07F7  3000               	movlw	high __pbssBANK0
  1147  07F8  0085               	movwf	5
  1148  07F9  3029               	movlw	41
  1149  07FA  3185  2581  3187   	fcall	clear_ram0
  1150  07FD                     end_of_initialization:	
  1151                           ;End of C runtime variable initialization code
  1152                           
  1153  07FD                     __end_of__initialization:
  1154  07FD  0140               	movlb	0
  1155  07FE  3186  2EDC         	ljmp	_main	;jump to C main() function
  1156                           
  1157                           	psect	bssBANK0
  1158  0020                     __pbssBANK0:
  1159  0020                     _dbuf:
  1160  0020                     	ds	32
  1161  0040                     _nout:
  1162  0040                     	ds	2
  1163  0042                     _width:
  1164  0042                     	ds	2
  1165  0044                     _prec:
  1166  0044                     	ds	2
  1167  0046                     _flags:
  1168  0046                     	ds	2
  1169  0048                     _eusart1RxLastError:
  1170  0048                     	ds	1
  1171                           
  1172                           	psect	clrtext
  1173  0581                     clear_ram0:	
  1174                           ;	Called with FSR0 containing the base address, and
  1175                           ;	WREG with the size to clear
  1176                           
  1177  0581  0064               	clrwdt	;clear the watchdog before getting into this loop
  1178  0582                     clrloop0:
  1179  0582  0180               	clrf	0	;clear RAM location pointed to by FSR
  1180  0583  3101               	addfsr 0,1
  1181  0584  0B89               	decfsz	9,f	;Have we reached the end of clearing yet?
  1182  0585  2D82               	goto	clrloop0	;have we reached the end yet?
  1183  0586  3400               	retlw	0	;all done for this memory range, return
  1184                           
  1185                           	psect	cstackCOMMON
  1186  0070                     __pcstackCOMMON:
  1187  0070                     ?_OSCILLATOR_Initialize:
  1188  0070                     ??_OSCILLATOR_Initialize:	
  1189                           ; 1 bytes @ 0x0
  1190                           
  1191  0070                     ?_WDT_Initialize:	
  1192                           ; 1 bytes @ 0x0
  1193                           
  1194  0070                     ??_WDT_Initialize:	
  1195                           ; 1 bytes @ 0x0
  1196                           
  1197  0070                     ?_EUSART1_Initialize:	
  1198                           ; 1 bytes @ 0x0
  1199                           
  1200  0070                     ?_EUSART1_SetFramingErrorHandler:	
  1201                           ; 1 bytes @ 0x0
  1202                           
  1203  0070                     ?_EUSART1_SetOverrunErrorHandler:	
  1204                           ; 1 bytes @ 0x0
  1205                           
  1206  0070                     ?_EUSART1_SetErrorHandler:	
  1207                           ; 1 bytes @ 0x0
  1208                           
  1209  0070                     ?_PIN_MANAGER_Initialize:	
  1210                           ; 1 bytes @ 0x0
  1211                           
  1212  0070                     ??_PIN_MANAGER_Initialize:	
  1213                           ; 1 bytes @ 0x0
  1214                           
  1215  0070                     ?_SYSTEM_Initialize:	
  1216                           ; 1 bytes @ 0x0
  1217                           
  1218  0070                     ?_EUSART1_Write:	
  1219                           ; 1 bytes @ 0x0
  1220                           
  1221  0070                     ??_EUSART1_Write:	
  1222                           ; 1 bytes @ 0x0
  1223                           
  1224  0070                     ?_putch:	
  1225                           ; 1 bytes @ 0x0
  1226                           
  1227  0070                     ?_main:	
  1228                           ; 1 bytes @ 0x0
  1229                           
  1230  0070                     EUSART1_Write@txData:	
  1231                           ; 1 bytes @ 0x0
  1232                           
  1233  0070                     EUSART1_SetFramingErrorHandler@interruptHandler:	
  1234                           ; 1 bytes @ 0x0
  1235                           
  1236  0070                     EUSART1_SetOverrunErrorHandler@interruptHandler:	
  1237                           ; 2 bytes @ 0x0
  1238                           
  1239  0070                     EUSART1_SetErrorHandler@interruptHandler:	
  1240                           ; 2 bytes @ 0x0
  1241                           
  1242                           
  1243                           ; 2 bytes @ 0x0
  1244  0070                     	ds	1
  1245  0071                     ??_putch:
  1246  0071                     putch@txData:	
  1247                           ; 1 bytes @ 0x1
  1248                           
  1249                           
  1250                           ; 1 bytes @ 0x1
  1251  0071                     	ds	1
  1252  0072                     ??_EUSART1_Initialize:
  1253  0072                     ??_EUSART1_SetFramingErrorHandler:	
  1254                           ; 1 bytes @ 0x2
  1255                           
  1256  0072                     ??_EUSART1_SetOverrunErrorHandler:	
  1257                           ; 1 bytes @ 0x2
  1258                           
  1259  0072                     ??_EUSART1_SetErrorHandler:	
  1260                           ; 1 bytes @ 0x2
  1261                           
  1262  0072                     ??_SYSTEM_Initialize:	
  1263                           ; 1 bytes @ 0x2
  1264                           
  1265  0072                     ?_fputc:	
  1266                           ; 1 bytes @ 0x2
  1267                           
  1268  0072                     fputc@c:	
  1269                           ; 2 bytes @ 0x2
  1270                           
  1271                           
  1272                           ; 2 bytes @ 0x2
  1273  0072                     	ds	2
  1274  0074                     fputc@fp:
  1275                           
  1276                           ; 1 bytes @ 0x4
  1277  0074                     	ds	1
  1278  0075                     ??_fputc:
  1279                           
  1280                           ; 1 bytes @ 0x5
  1281  0075                     	ds	5
  1282  007A                     ?_vfpfcnvrt:
  1283  007A                     vfpfcnvrt@fmt:	
  1284                           ; 2 bytes @ 0xA
  1285                           
  1286                           
  1287                           ; 1 bytes @ 0xA
  1288  007A                     	ds	1
  1289  007B                     vfpfcnvrt@ap:
  1290                           
  1291                           ; 1 bytes @ 0xB
  1292  007B                     	ds	1
  1293  007C                     vfpfcnvrt@fp:
  1294                           
  1295                           ; 1 bytes @ 0xC
  1296  007C                     	ds	1
  1297  007D                     ??_printf:
  1298                           
  1299                           ; 1 bytes @ 0xD
  1300  007D                     	ds	1
  1301                           
  1302                           	psect	cstackBANK0
  1303  0049                     __pcstackBANK0:
  1304  0049                     ??_vfpfcnvrt:
  1305                           
  1306                           ; 1 bytes @ 0x0
  1307  0049                     	ds	5
  1308  004E                     ?_vfprintf:
  1309  004E                     vfprintf@fmt:	
  1310                           ; 2 bytes @ 0x5
  1311                           
  1312                           
  1313                           ; 2 bytes @ 0x5
  1314  004E                     	ds	2
  1315  0050                     vfprintf@ap:
  1316                           
  1317                           ; 1 bytes @ 0x7
  1318  0050                     	ds	1
  1319  0051                     ??_vfprintf:
  1320                           
  1321                           ; 1 bytes @ 0x8
  1322  0051                     	ds	2
  1323  0053                     vfprintf@fp:
  1324                           
  1325                           ; 1 bytes @ 0xA
  1326  0053                     	ds	1
  1327  0054                     vfprintf@cfmt:
  1328                           
  1329                           ; 2 bytes @ 0xB
  1330  0054                     	ds	2
  1331  0056                     ?_printf:
  1332  0056                     printf@fmt:	
  1333                           ; 2 bytes @ 0xD
  1334                           
  1335                           
  1336                           ; 2 bytes @ 0xD
  1337  0056                     	ds	4
  1338  005A                     printf@ap:
  1339                           
  1340                           ; 1 bytes @ 0x11
  1341  005A                     	ds	1
  1342  005B                     ??_main:
  1343                           
  1344                           ; 1 bytes @ 0x12
  1345  005B                     	ds	2
  1346  005D                     main@Contador:
  1347                           
  1348                           ; 1 bytes @ 0x14
  1349  005D                     	ds	1
  1350                           
  1351                           	psect	maintext
  1352  06DC                     __pmaintext:	
  1353 ;;
  1354 ;;Main: autosize = 0, tempsize = 2, incstack = 0, save=0
  1355 ;;
  1356 ;; *************** function _main *****************
  1357 ;; Defined at:
  1358 ;;		line 14 in file "main.c"
  1359 ;; Parameters:    Size  Location     Type
  1360 ;;		None
  1361 ;; Auto vars:     Size  Location     Type
  1362 ;;  Contador        1   20[BANK0 ] unsigned char 
  1363 ;; Return value:  Size  Location     Type
  1364 ;;                  1    wreg      void 
  1365 ;; Registers used:
  1366 ;;		wreg, fsr0l, fsr0h, fsr1l, fsr1h, status,2, status,0, pclath, cstack
  1367 ;; Tracked objects:
  1368 ;;		On entry : B3F/0
  1369 ;;		On exit  : 0/0
  1370 ;;		Unchanged: 0/0
  1371 ;; Data sizes:     COMMON   BANK0   BANK1   BANK2   BANK3   BANK4   BANK5   BANK6
  1372 ;;      Params:         0       0       0       0       0       0       0       0
  1373 ;;      Locals:         0       1       0       0       0       0       0       0
  1374 ;;      Temps:          0       2       0       0       0       0       0       0
  1375 ;;      Totals:         0       3       0       0       0       0       0       0
  1376 ;;Total ram usage:        3 bytes
  1377 ;; Hardware stack levels required when called: 6
  1378 ;; This function calls:
  1379 ;;		_EUSART1_Initialize
  1380 ;;		_SYSTEM_Initialize
  1381 ;;		_printf
  1382 ;; This function is called by:
  1383 ;;		Startup code after reset
  1384 ;; This function uses a non-reentrant model
  1385 ;;
  1386                           
  1387                           
  1388                           ;psect for function _main
  1389  06DC                     _main:
  1390  06DC                     l1217:	
  1391                           ;incstack = 0
  1392                           ; Regs used in _main: [wreg-fsr1h+status,2+status,0+pclath+cstack]
  1393                           
  1394                           
  1395                           ;main.c: 16:     EUSART1_Initialize();
  1396  06DC  3185  25B0  3186   	fcall	_EUSART1_Initialize
  1397                           
  1398                           ;main.c: 17:     SYSTEM_Initialize();
  1399  06DF  3185  2591  3186   	fcall	_SYSTEM_Initialize
  1400  06E2                     l1219:
  1401                           
  1402                           ;main.c: 19:     uint8_t Contador = 0;
  1403  06E2  0140               	movlb	0	; select bank0
  1404  06E3  01DD               	clrf	main@Contador
  1405  06E4                     l1221:
  1406                           
  1407                           ;main.c: 21:     printf("INICIO \n\r");
  1408  06E4  30F2               	movlw	low (STR_1| (0+32768))
  1409  06E5  00D6               	movwf	printf@fmt
  1410  06E6  3088               	movlw	high (STR_1| (0+32768))
  1411  06E7  00D7               	movwf	printf@fmt+1
  1412  06E8  3185  259E  3186   	fcall	_printf
  1413  06EB                     l1223:
  1414                           
  1415                           ;main.c: 24:     {;main.c: 28:         printf("El dispositivo est? girando a la derecha 
      +                          \n\r", Contador++);
  1416  06EB  3060               	movlw	low (STR_2| (0+32768))
  1417  06EC  0140               	movlb	0	; select bank0
  1418  06ED  00D6               	movwf	printf@fmt
  1419  06EE  3088               	movlw	high (STR_2| (0+32768))
  1420  06EF  00D7               	movwf	printf@fmt+1
  1421  06F0  085D               	movf	main@Contador,w
  1422  06F1  00DB               	movwf	??_main
  1423  06F2  01DC               	clrf	??_main+1
  1424  06F3  085B               	movf	??_main,w
  1425  06F4  00D8               	movwf	?_printf+2
  1426  06F5  085C               	movf	??_main+1,w
  1427  06F6  00D9               	movwf	?_printf+3
  1428  06F7  3185  259E  3186   	fcall	_printf
  1429  06FA                     l1225:
  1430  06FA  3001               	movlw	1
  1431  06FB  0140               	movlb	0	; select bank0
  1432  06FC  00DB               	movwf	??_main
  1433  06FD  085B               	movf	??_main,w
  1434  06FE  07DD               	addwf	main@Contador,f
  1435  06FF                     l1227:
  1436                           
  1437                           ;main.c: 30:         PORTBbits.RB4 = 1;
  1438  06FF  160D               	bsf	13,4	;volatile
  1439  0700                     l1229:
  1440                           
  1441                           ;main.c: 31:         PORTCbits.RC4 = 0;
  1442  0700  120E               	bcf	14,4	;volatile
  1443  0701                     l1231:
  1444                           
  1445                           ;main.c: 32:         PORTBbits.RB6 = 0;
  1446  0701  130D               	bcf	13,6	;volatile
  1447  0702                     l1233:
  1448                           
  1449                           ;main.c: 33:         PORTBbits.RB7 = 0;
  1450  0702  138D               	bcf	13,7	;volatile
  1451  0703                     l1235:
  1452                           
  1453                           ;main.c: 34:         PORTCbits.RC5 = 1;
  1454  0703  168E               	bsf	14,5	;volatile
  1455  0704                     l1237:
  1456                           
  1457                           ;main.c: 35:         PORTCbits.RC6 = 1;
  1458  0704  170E               	bsf	14,6	;volatile
  1459  0705                     l1239:
  1460                           
  1461                           ;main.c: 36:         PORTCbits.RC7 = 0;
  1462  0705  138E               	bcf	14,7	;volatile
  1463  0706                     l1241:
  1464                           
  1465                           ;main.c: 37:         _delay((unsigned long)((15000)*(1000000/4000.0)));
  1466  0706  3014               	movlw	20
  1467  0707  0140               	movlb	0	; select bank0
  1468  0708  00DC               	movwf	??_main+1
  1469  0709  3007               	movlw	7
  1470  070A  00DB               	movwf	??_main
  1471  070B  3011               	movlw	17
  1472  070C                     u237:
  1473  070C  0B89               	decfsz	9,f
  1474  070D  2F0C               	goto	u237
  1475  070E  0BDB               	decfsz	??_main,f
  1476  070F  2F0C               	goto	u237
  1477  0710  0BDC               	decfsz	??_main+1,f
  1478  0711  2F0C               	goto	u237
  1479  0712  3200               	nop2
  1480  0713                     l1243:
  1481                           
  1482                           ;main.c: 38:         printf("---------------------------------------------- \n\r", Conta
      +                          dor++);
  1483  0713  3000               	movlw	low (STR_3| (0+32768))
  1484  0714  0140               	movlb	0	; select bank0
  1485  0715  00D6               	movwf	printf@fmt
  1486  0716  3088               	movlw	high (STR_3| (0+32768))
  1487  0717  00D7               	movwf	printf@fmt+1
  1488  0718  085D               	movf	main@Contador,w
  1489  0719  00DB               	movwf	??_main
  1490  071A  01DC               	clrf	??_main+1
  1491  071B  085B               	movf	??_main,w
  1492  071C  00D8               	movwf	?_printf+2
  1493  071D  085C               	movf	??_main+1,w
  1494  071E  00D9               	movwf	?_printf+3
  1495  071F  3185  259E  3186   	fcall	_printf
  1496  0722                     l1245:
  1497  0722  3001               	movlw	1
  1498  0723  0140               	movlb	0	; select bank0
  1499  0724  00DB               	movwf	??_main
  1500  0725  085B               	movf	??_main,w
  1501  0726  07DD               	addwf	main@Contador,f
  1502  0727                     l1247:
  1503                           
  1504                           ;main.c: 42:         printf("El dispositivo est? girando a la izquierda \n\r", Contador+
      +                          +);
  1505  0727  3032               	movlw	low (STR_4| (0+32768))
  1506  0728  00D6               	movwf	printf@fmt
  1507  0729  3088               	movlw	high (STR_4| (0+32768))
  1508  072A  00D7               	movwf	printf@fmt+1
  1509  072B  085D               	movf	main@Contador,w
  1510  072C  00DB               	movwf	??_main
  1511  072D  01DC               	clrf	??_main+1
  1512  072E  085B               	movf	??_main,w
  1513  072F  00D8               	movwf	?_printf+2
  1514  0730  085C               	movf	??_main+1,w
  1515  0731  00D9               	movwf	?_printf+3
  1516  0732  3185  259E  3186   	fcall	_printf
  1517  0735                     l1249:
  1518  0735  3001               	movlw	1
  1519  0736  0140               	movlb	0	; select bank0
  1520  0737  00DB               	movwf	??_main
  1521  0738  085B               	movf	??_main,w
  1522  0739  07DD               	addwf	main@Contador,f
  1523  073A                     l1251:
  1524                           
  1525                           ;main.c: 43:         PORTBbits.RB4 = 0;
  1526  073A  120D               	bcf	13,4	;volatile
  1527  073B                     l1253:
  1528                           
  1529                           ;main.c: 44:         PORTCbits.RC4 = 1;
  1530  073B  160E               	bsf	14,4	;volatile
  1531  073C                     l1255:
  1532                           
  1533                           ;main.c: 45:         PORTBbits.RB6 = 1;
  1534  073C  170D               	bsf	13,6	;volatile
  1535  073D                     l1257:
  1536                           
  1537                           ;main.c: 46:         PORTBbits.RB7 = 0;
  1538  073D  138D               	bcf	13,7	;volatile
  1539  073E                     l1259:
  1540                           
  1541                           ;main.c: 47:         PORTCbits.RC5 = 0;
  1542  073E  128E               	bcf	14,5	;volatile
  1543  073F                     l1261:
  1544                           
  1545                           ;main.c: 48:         PORTCbits.RC6 = 0;
  1546  073F  130E               	bcf	14,6	;volatile
  1547  0740                     l1263:
  1548                           
  1549                           ;main.c: 49:         PORTCbits.RC7 = 1;
  1550  0740  178E               	bsf	14,7	;volatile
  1551  0741                     l1265:
  1552                           
  1553                           ;main.c: 50:         _delay((unsigned long)((15000)*(1000000/4000.0)));
  1554  0741  3014               	movlw	20
  1555  0742  0140               	movlb	0	; select bank0
  1556  0743  00DC               	movwf	??_main+1
  1557  0744  3007               	movlw	7
  1558  0745  00DB               	movwf	??_main
  1559  0746  3011               	movlw	17
  1560  0747                     u247:
  1561  0747  0B89               	decfsz	9,f
  1562  0748  2F47               	goto	u247
  1563  0749  0BDB               	decfsz	??_main,f
  1564  074A  2F47               	goto	u247
  1565  074B  0BDC               	decfsz	??_main+1,f
  1566  074C  2F47               	goto	u247
  1567  074D  3200               	nop2
  1568  074E                     l1267:
  1569                           
  1570                           ;main.c: 51:         printf("---------------------------------------------- \n\r", Conta
      +                          dor++);
  1571  074E  3000               	movlw	low (STR_3| (0+32768))
  1572  074F  0140               	movlb	0	; select bank0
  1573  0750  00D6               	movwf	printf@fmt
  1574  0751  3088               	movlw	high (STR_3| (0+32768))
  1575  0752  00D7               	movwf	printf@fmt+1
  1576  0753  085D               	movf	main@Contador,w
  1577  0754  00DB               	movwf	??_main
  1578  0755  01DC               	clrf	??_main+1
  1579  0756  085B               	movf	??_main,w
  1580  0757  00D8               	movwf	?_printf+2
  1581  0758  085C               	movf	??_main+1,w
  1582  0759  00D9               	movwf	?_printf+3
  1583  075A  3185  259E  3186   	fcall	_printf
  1584  075D                     l1269:
  1585  075D  3001               	movlw	1
  1586  075E  0140               	movlb	0	; select bank0
  1587  075F  00DB               	movwf	??_main
  1588  0760  085B               	movf	??_main,w
  1589  0761  07DD               	addwf	main@Contador,f
  1590  0762                     l1271:
  1591                           
  1592                           ;main.c: 55:         printf("El Dispositivo est? avanzando \n\r");
  1593  0762  30B1               	movlw	low (STR_6| (0+32768))
  1594  0763  00D6               	movwf	printf@fmt
  1595  0764  3088               	movlw	high (STR_6| (0+32768))
  1596  0765  00D7               	movwf	printf@fmt+1
  1597  0766  3185  259E  3186   	fcall	_printf
  1598  0769                     l1273:
  1599                           
  1600                           ;main.c: 57:         PORTBbits.RB4 = 1;
  1601  0769  0140               	movlb	0	; select bank0
  1602  076A  160D               	bsf	13,4	;volatile
  1603  076B                     l1275:
  1604                           
  1605                           ;main.c: 58:         PORTCbits.RC4 = 1;
  1606  076B  160E               	bsf	14,4	;volatile
  1607  076C                     l1277:
  1608                           
  1609                           ;main.c: 59:         PORTBbits.RB6 = 0;
  1610  076C  130D               	bcf	13,6	;volatile
  1611  076D                     l1279:
  1612                           
  1613                           ;main.c: 60:         PORTBbits.RB7 = 0;
  1614  076D  138D               	bcf	13,7	;volatile
  1615  076E                     l1281:
  1616                           
  1617                           ;main.c: 61:         PORTCbits.RC5 = 0;
  1618  076E  128E               	bcf	14,5	;volatile
  1619  076F                     l1283:
  1620                           
  1621                           ;main.c: 62:         PORTCbits.RC6 = 0;
  1622  076F  130E               	bcf	14,6	;volatile
  1623  0770                     l1285:
  1624                           
  1625                           ;main.c: 63:         PORTCbits.RC7 = 0;
  1626  0770  138E               	bcf	14,7	;volatile
  1627  0771                     l1287:
  1628                           
  1629                           ;main.c: 64:         _delay((unsigned long)((15000)*(1000000/4000.0)));
  1630  0771  3014               	movlw	20
  1631  0772  0140               	movlb	0	; select bank0
  1632  0773  00DC               	movwf	??_main+1
  1633  0774  3007               	movlw	7
  1634  0775  00DB               	movwf	??_main
  1635  0776  3011               	movlw	17
  1636  0777                     u257:
  1637  0777  0B89               	decfsz	9,f
  1638  0778  2F77               	goto	u257
  1639  0779  0BDB               	decfsz	??_main,f
  1640  077A  2F77               	goto	u257
  1641  077B  0BDC               	decfsz	??_main+1,f
  1642  077C  2F77               	goto	u257
  1643  077D  3200               	nop2
  1644  077E                     l1289:
  1645                           
  1646                           ;main.c: 65:         printf("---------------------------------------------- \n\r", Conta
      +                          dor++);
  1647  077E  3000               	movlw	low (STR_3| (0+32768))
  1648  077F  0140               	movlb	0	; select bank0
  1649  0780  00D6               	movwf	printf@fmt
  1650  0781  3088               	movlw	high (STR_3| (0+32768))
  1651  0782  00D7               	movwf	printf@fmt+1
  1652  0783  085D               	movf	main@Contador,w
  1653  0784  00DB               	movwf	??_main
  1654  0785  01DC               	clrf	??_main+1
  1655  0786  085B               	movf	??_main,w
  1656  0787  00D8               	movwf	?_printf+2
  1657  0788  085C               	movf	??_main+1,w
  1658  0789  00D9               	movwf	?_printf+3
  1659  078A  3185  259E  3186   	fcall	_printf
  1660  078D                     l1291:
  1661  078D  3001               	movlw	1
  1662  078E  0140               	movlb	0	; select bank0
  1663  078F  00DB               	movwf	??_main
  1664  0790  085B               	movf	??_main,w
  1665  0791  07DD               	addwf	main@Contador,f
  1666  0792                     l1293:
  1667                           
  1668                           ;main.c: 69:         printf("El Dispositivo est? retrocediendo \n\r");
  1669  0792  308C               	movlw	low (STR_8| (0+32768))
  1670  0793  00D6               	movwf	printf@fmt
  1671  0794  3088               	movlw	high (STR_8| (0+32768))
  1672  0795  00D7               	movwf	printf@fmt+1
  1673  0796  3185  259E  3186   	fcall	_printf
  1674  0799                     l1295:
  1675                           
  1676                           ;main.c: 70:         PORTBbits.RB4 = 0;
  1677  0799  0140               	movlb	0	; select bank0
  1678  079A  120D               	bcf	13,4	;volatile
  1679  079B                     l1297:
  1680                           
  1681                           ;main.c: 71:         PORTCbits.RC4 = 0;
  1682  079B  120E               	bcf	14,4	;volatile
  1683  079C                     l1299:
  1684                           
  1685                           ;main.c: 72:         PORTBbits.RB6 = 1;
  1686  079C  170D               	bsf	13,6	;volatile
  1687  079D                     l1301:
  1688                           
  1689                           ;main.c: 73:         PORTBbits.RB7 = 1;
  1690  079D  178D               	bsf	13,7	;volatile
  1691  079E                     l1303:
  1692                           
  1693                           ;main.c: 74:         PORTCbits.RC5 = 1;
  1694  079E  168E               	bsf	14,5	;volatile
  1695  079F                     l1305:
  1696                           
  1697                           ;main.c: 75:         PORTCbits.RC6 = 1;
  1698  079F  170E               	bsf	14,6	;volatile
  1699  07A0                     l1307:
  1700                           
  1701                           ;main.c: 76:         PORTCbits.RC7 = 1;
  1702  07A0  178E               	bsf	14,7	;volatile
  1703  07A1                     l1309:
  1704                           
  1705                           ;main.c: 77:         _delay((unsigned long)((15000)*(1000000/4000.0)));
  1706  07A1  3014               	movlw	20
  1707  07A2  0140               	movlb	0	; select bank0
  1708  07A3  00DC               	movwf	??_main+1
  1709  07A4  3007               	movlw	7
  1710  07A5  00DB               	movwf	??_main
  1711  07A6  3011               	movlw	17
  1712  07A7                     u267:
  1713  07A7  0B89               	decfsz	9,f
  1714  07A8  2FA7               	goto	u267
  1715  07A9  0BDB               	decfsz	??_main,f
  1716  07AA  2FA7               	goto	u267
  1717  07AB  0BDC               	decfsz	??_main+1,f
  1718  07AC  2FA7               	goto	u267
  1719  07AD  3200               	nop2
  1720  07AE                     l1311:
  1721                           
  1722                           ;main.c: 78:         printf("---------------------------------------------- \n\r", Conta
      +                          dor++);
  1723  07AE  3000               	movlw	low (STR_3| (0+32768))
  1724  07AF  0140               	movlb	0	; select bank0
  1725  07B0  00D6               	movwf	printf@fmt
  1726  07B1  3088               	movlw	high (STR_3| (0+32768))
  1727  07B2  00D7               	movwf	printf@fmt+1
  1728  07B3  085D               	movf	main@Contador,w
  1729  07B4  00DB               	movwf	??_main
  1730  07B5  01DC               	clrf	??_main+1
  1731  07B6  085B               	movf	??_main,w
  1732  07B7  00D8               	movwf	?_printf+2
  1733  07B8  085C               	movf	??_main+1,w
  1734  07B9  00D9               	movwf	?_printf+3
  1735  07BA  3185  259E  3186   	fcall	_printf
  1736  07BD                     l1313:
  1737  07BD  3001               	movlw	1
  1738  07BE  0140               	movlb	0	; select bank0
  1739  07BF  00DB               	movwf	??_main
  1740  07C0  085B               	movf	??_main,w
  1741  07C1  07DD               	addwf	main@Contador,f
  1742  07C2                     l1315:
  1743                           
  1744                           ;main.c: 82:         printf("El Dispositivo est? detenido \n\r");
  1745  07C2  30D2               	movlw	low (STR_10| (0+32768))
  1746  07C3  00D6               	movwf	printf@fmt
  1747  07C4  3088               	movlw	high (STR_10| (0+32768))
  1748  07C5  00D7               	movwf	printf@fmt+1
  1749  07C6  3185  259E  3186   	fcall	_printf
  1750  07C9                     l1317:
  1751                           
  1752                           ;main.c: 84:         PORTBbits.RB4 = 0;
  1753  07C9  0140               	movlb	0	; select bank0
  1754  07CA  120D               	bcf	13,4	;volatile
  1755  07CB                     l1319:
  1756                           
  1757                           ;main.c: 85:         PORTCbits.RC4 = 0;
  1758  07CB  120E               	bcf	14,4	;volatile
  1759  07CC                     l1321:
  1760                           
  1761                           ;main.c: 86:         PORTBbits.RB6 = 0;
  1762  07CC  130D               	bcf	13,6	;volatile
  1763  07CD                     l1323:
  1764                           
  1765                           ;main.c: 87:         PORTBbits.RB7 = 1;
  1766  07CD  178D               	bsf	13,7	;volatile
  1767  07CE                     l1325:
  1768                           
  1769                           ;main.c: 88:         PORTCbits.RC5 = 0;
  1770  07CE  128E               	bcf	14,5	;volatile
  1771  07CF                     l1327:
  1772                           
  1773                           ;main.c: 89:         PORTCbits.RC6 = 0;
  1774  07CF  130E               	bcf	14,6	;volatile
  1775  07D0                     l1329:
  1776                           
  1777                           ;main.c: 90:         PORTCbits.RC7 = 0;
  1778  07D0  138E               	bcf	14,7	;volatile
  1779  07D1                     l1331:
  1780                           
  1781                           ;main.c: 92:         _delay((unsigned long)((1000)*(1000000/4000.0)));
  1782  07D1  3002               	movlw	2
  1783  07D2  0140               	movlb	0	; select bank0
  1784  07D3  00DC               	movwf	??_main+1
  1785  07D4  3045               	movlw	69
  1786  07D5  00DB               	movwf	??_main
  1787  07D6  30A9               	movlw	169
  1788  07D7                     u277:
  1789  07D7  0B89               	decfsz	9,f
  1790  07D8  2FD7               	goto	u277
  1791  07D9  0BDB               	decfsz	??_main,f
  1792  07DA  2FD7               	goto	u277
  1793  07DB  0BDC               	decfsz	??_main+1,f
  1794  07DC  2FD7               	goto	u277
  1795  07DD  3200               	nop2
  1796  07DE                     l1333:
  1797                           
  1798                           ;main.c: 93:         printf("---------------------------------------------- \n\r", Conta
      +                          dor++);
  1799  07DE  3000               	movlw	low (STR_3| (0+32768))
  1800  07DF  0140               	movlb	0	; select bank0
  1801  07E0  00D6               	movwf	printf@fmt
  1802  07E1  3088               	movlw	high (STR_3| (0+32768))
  1803  07E2  00D7               	movwf	printf@fmt+1
  1804  07E3  085D               	movf	main@Contador,w
  1805  07E4  00DB               	movwf	??_main
  1806  07E5  01DC               	clrf	??_main+1
  1807  07E6  085B               	movf	??_main,w
  1808  07E7  00D8               	movwf	?_printf+2
  1809  07E8  085C               	movf	??_main+1,w
  1810  07E9  00D9               	movwf	?_printf+3
  1811  07EA  3185  259E  3186   	fcall	_printf
  1812  07ED                     l1335:
  1813  07ED  3001               	movlw	1
  1814  07EE  0140               	movlb	0	; select bank0
  1815  07EF  00DB               	movwf	??_main
  1816  07F0  085B               	movf	??_main,w
  1817  07F1  07DD               	addwf	main@Contador,f
  1818  07F2  2EEB               	goto	l1223
  1819  07F3  3180  2802         	ljmp	start
  1820  07F5                     __end_of_main:
  1821                           
  1822                           	psect	text1
  1823  059E                     __ptext1:	
  1824 ;; *************** function _printf *****************
  1825 ;; Defined at:
  1826 ;;		line 5 in file "/opt/microchip/xc8/v2.32/pic/sources/c99/common/printf.c"
  1827 ;; Parameters:    Size  Location     Type
  1828 ;;  fmt             2   13[BANK0 ] PTR const unsigned char 
  1829 ;;		 -> STR_11(50), STR_10(32), STR_9(50), STR_8(37), 
  1830 ;;		 -> STR_7(50), STR_6(33), STR_5(50), STR_4(46), 
  1831 ;;		 -> STR_3(50), STR_2(44), STR_1(10), 
  1832 ;; Auto vars:     Size  Location     Type
  1833 ;;  ret             2    0        int 
  1834 ;;  ap              1   17[BANK0 ] PTR void [1]
  1835 ;;		 -> ?_printf(2), 
  1836 ;; Return value:  Size  Location     Type
  1837 ;;                  2   13[BANK0 ] int 
  1838 ;; Registers used:
  1839 ;;		wreg, fsr0l, fsr0h, fsr1l, fsr1h, status,2, status,0, pclath, cstack
  1840 ;; Tracked objects:
  1841 ;;		On entry : 0/0
  1842 ;;		On exit  : 0/0
  1843 ;;		Unchanged: 0/0
  1844 ;; Data sizes:     COMMON   BANK0   BANK1   BANK2   BANK3   BANK4   BANK5   BANK6
  1845 ;;      Params:         0       4       0       0       0       0       0       0
  1846 ;;      Locals:         0       1       0       0       0       0       0       0
  1847 ;;      Temps:          1       0       0       0       0       0       0       0
  1848 ;;      Totals:         1       5       0       0       0       0       0       0
  1849 ;;Total ram usage:        6 bytes
  1850 ;; Hardware stack levels used: 1
  1851 ;; Hardware stack levels required when called: 5
  1852 ;; This function calls:
  1853 ;;		_vfprintf
  1854 ;; This function is called by:
  1855 ;;		_main
  1856 ;; This function uses a non-reentrant model
  1857 ;;
  1858                           
  1859                           
  1860                           ;psect for function _printf
  1861  059E                     _printf:
  1862  059E                     l1207:	
  1863                           ;incstack = 0
  1864                           ; Regs used in _printf: [wreg-fsr1h+status,2+status,0+pclath+cstack]
  1865                           
  1866  059E  3058               	movlw	(low ((?_printf| 0+2)))& (0+255)
  1867  059F  00FD               	movwf	??_printf
  1868  05A0  087D               	movf	??_printf,w
  1869  05A1  0140               	movlb	0	; select bank0
  1870  05A2  00DA               	movwf	printf@ap
  1871  05A3                     l1209:
  1872  05A3  0857               	movf	printf@fmt+1,w
  1873  05A4  00CF               	movwf	vfprintf@fmt+1
  1874  05A5  0856               	movf	printf@fmt,w
  1875  05A6  00CE               	movwf	vfprintf@fmt
  1876  05A7  305A               	movlw	(low (printf@ap| 0))& (0+255)
  1877  05A8  00FD               	movwf	??_printf
  1878  05A9  087D               	movf	??_printf,w
  1879  05AA  00D0               	movwf	vfprintf@ap
  1880  05AB  3000               	movlw	0
  1881  05AC  3185  25D2  3185   	fcall	_vfprintf
  1882  05AF                     l722:
  1883  05AF  0008               	return
  1884  05B0                     __end_of_printf:
  1885                           
  1886                           	psect	text2
  1887  05D2                     __ptext2:	
  1888 ;; *************** function _vfprintf *****************
  1889 ;; Defined at:
  1890 ;;		line 1390 in file "/opt/microchip/xc8/v2.32/pic/sources/c99/common/doprnt.c"
  1891 ;; Parameters:    Size  Location     Type
  1892 ;;  fp              1    wreg     PTR struct _IO_FILE
  1893 ;;		 -> NULL(0), 
  1894 ;;  fmt             2    5[BANK0 ] PTR const unsigned char 
  1895 ;;		 -> STR_11(50), STR_10(32), STR_9(50), STR_8(37), 
  1896 ;;		 -> STR_7(50), STR_6(33), STR_5(50), STR_4(46), 
  1897 ;;		 -> STR_3(50), STR_2(44), STR_1(10), 
  1898 ;;  ap              1    7[BANK0 ] PTR PTR void 
  1899 ;;		 -> printf@ap(1), 
  1900 ;; Auto vars:     Size  Location     Type
  1901 ;;  fp              1   10[BANK0 ] PTR struct _IO_FILE
  1902 ;;		 -> NULL(0), 
  1903 ;;  cfmt            2   11[BANK0 ] PTR unsigned char 
  1904 ;;		 -> STR_11(50), STR_10(32), STR_9(50), STR_8(37), 
  1905 ;;		 -> STR_7(50), STR_6(33), STR_5(50), STR_4(46), 
  1906 ;;		 -> STR_3(50), STR_2(44), STR_1(10), 
  1907 ;; Return value:  Size  Location     Type
  1908 ;;                  2    5[BANK0 ] int 
  1909 ;; Registers used:
  1910 ;;		wreg, fsr0l, fsr0h, fsr1l, fsr1h, status,2, status,0, pclath, cstack
  1911 ;; Tracked objects:
  1912 ;;		On entry : 0/0
  1913 ;;		On exit  : 0/0
  1914 ;;		Unchanged: 0/0
  1915 ;; Data sizes:     COMMON   BANK0   BANK1   BANK2   BANK3   BANK4   BANK5   BANK6
  1916 ;;      Params:         0       3       0       0       0       0       0       0
  1917 ;;      Locals:         0       3       0       0       0       0       0       0
  1918 ;;      Temps:          0       2       0       0       0       0       0       0
  1919 ;;      Totals:         0       8       0       0       0       0       0       0
  1920 ;;Total ram usage:        8 bytes
  1921 ;; Hardware stack levels used: 1
  1922 ;; Hardware stack levels required when called: 4
  1923 ;; This function calls:
  1924 ;;		_vfpfcnvrt
  1925 ;; This function is called by:
  1926 ;;		_printf
  1927 ;; This function uses a non-reentrant model
  1928 ;;
  1929                           
  1930                           
  1931                           ;psect for function _vfprintf
  1932  05D2                     _vfprintf:
  1933                           
  1934                           ;incstack = 0
  1935                           ; Regs used in _vfprintf: [wreg-fsr1h+status,2+status,0+pclath+cstack]
  1936                           ;vfprintf@fp stored from wreg
  1937  05D2  0140               	movlb	0	; select bank0
  1938  05D3  00D3               	movwf	vfprintf@fp
  1939  05D4                     l1177:
  1940                           
  1941                           ;/opt/microchip/xc8/v2.32/pic/sources/c99/common/doprnt.c: 1390: int vfprintf(FILE *fp, 
      +                          const char *fmt, va_list ap);/opt/microchip/xc8/v2.32/pic/sources/c99/common/doprnt.c: 1
      +                          391: {;/opt/microchip/xc8/v2.32/pic/sources/c99/common/doprnt.c: 1393:     char *cfmt;;/
      +                          opt/microchip/xc8/v2.32/pic/sources/c99/common/doprnt.c: 1395:     cfmt = (char *)fmt;
  1942  05D4  084F               	movf	vfprintf@fmt+1,w
  1943  05D5  00D5               	movwf	vfprintf@cfmt+1
  1944  05D6  084E               	movf	vfprintf@fmt,w
  1945  05D7  00D4               	movwf	vfprintf@cfmt
  1946  05D8                     l1179:
  1947                           
  1948                           ;/opt/microchip/xc8/v2.32/pic/sources/c99/common/doprnt.c: 1396:     nout = 0;
  1949  05D8  01C0               	clrf	_nout
  1950  05D9  01C1               	clrf	_nout+1
  1951                           
  1952                           ;/opt/microchip/xc8/v2.32/pic/sources/c99/common/doprnt.c: 1397:     while (*cfmt) {
  1953  05DA  2DEC               	goto	l1183
  1954  05DB                     l1181:
  1955                           
  1956                           ;/opt/microchip/xc8/v2.32/pic/sources/c99/common/doprnt.c: 1398:         nout += vfpfcnv
      +                          rt(fp, &cfmt, ap);
  1957  05DB  3054               	movlw	(low (vfprintf@cfmt| 0))& (0+255)
  1958  05DC  00D1               	movwf	??_vfprintf
  1959  05DD  0851               	movf	??_vfprintf,w
  1960  05DE  00FA               	movwf	vfpfcnvrt@fmt
  1961  05DF  0850               	movf	vfprintf@ap,w
  1962  05E0  00D2               	movwf	??_vfprintf+1
  1963  05E1  0852               	movf	??_vfprintf+1,w
  1964  05E2  00FB               	movwf	vfpfcnvrt@ap
  1965  05E3  0853               	movf	vfprintf@fp,w
  1966  05E4  3186  2662  3185   	fcall	_vfpfcnvrt
  1967  05E7  087A               	movf	?_vfpfcnvrt,w
  1968  05E8  0140               	movlb	0	; select bank0
  1969  05E9  07C0               	addwf	_nout,f
  1970  05EA  087B               	movf	?_vfpfcnvrt+1,w
  1971  05EB  3DC1               	addwfc	_nout+1,f
  1972  05EC                     l1183:
  1973                           
  1974                           ;/opt/microchip/xc8/v2.32/pic/sources/c99/common/doprnt.c: 1397:     while (*cfmt) {
  1975  05EC  0854               	movf	vfprintf@cfmt,w
  1976  05ED  0084               	movwf	4
  1977  05EE  0855               	movf	vfprintf@cfmt+1,w
  1978  05EF  0085               	movwf	5
  1979  05F0  0012               	moviw fsr0++
  1980  05F1  1D03               	btfss	3,2
  1981  05F2  2DF4               	goto	u201
  1982  05F3  2DF5               	goto	u200
  1983  05F4                     u201:
  1984  05F4  2DDB               	goto	l1181
  1985  05F5                     u200:
  1986  05F5                     l1185:
  1987                           
  1988                           ;/opt/microchip/xc8/v2.32/pic/sources/c99/common/doprnt.c: 1400:     return nout;
  1989  05F5  0841               	movf	_nout+1,w
  1990  05F6  00CF               	movwf	?_vfprintf+1
  1991  05F7  0840               	movf	_nout,w
  1992  05F8  00CE               	movwf	?_vfprintf
  1993  05F9                     l761:
  1994  05F9  0008               	return
  1995  05FA                     __end_of_vfprintf:
  1996                           
  1997                           	psect	text3
  1998  0662                     __ptext3:	
  1999 ;; *************** function _vfpfcnvrt *****************
  2000 ;; Defined at:
  2001 ;;		line 692 in file "/opt/microchip/xc8/v2.32/pic/sources/c99/common/doprnt.c"
  2002 ;; Parameters:    Size  Location     Type
  2003 ;;  fp              1    wreg     PTR struct _IO_FILE
  2004 ;;		 -> NULL(0), 
  2005 ;;  fmt             1   10[COMMON] PTR PTR unsigned char 
  2006 ;;		 -> vfprintf@cfmt(2), 
  2007 ;;  ap              1   11[COMMON] PTR PTR void 
  2008 ;;		 -> printf@ap(1), 
  2009 ;; Auto vars:     Size  Location     Type
  2010 ;;  fp              1   12[COMMON] PTR struct _IO_FILE
  2011 ;;		 -> NULL(0), 
  2012 ;;  llu             8    0        unsigned long long 
  2013 ;;  ll              8    0        long long 
  2014 ;;  f               4    0        long long 
  2015 ;;  ct              3    0        unsigned char [3]
  2016 ;;  vp              2    0        PTR void 
  2017 ;;  i               2    0        int 
  2018 ;;  done            2    0        int 
  2019 ;;  cp              2    0        PTR unsigned char 
  2020 ;;  c               1    0        unsigned char 
  2021 ;; Return value:  Size  Location     Type
  2022 ;;                  2   10[COMMON] int 
  2023 ;; Registers used:
  2024 ;;		wreg, fsr0l, fsr0h, fsr1l, fsr1h, status,2, status,0, pclath, cstack
  2025 ;; Tracked objects:
  2026 ;;		On entry : 0/0
  2027 ;;		On exit  : 0/0
  2028 ;;		Unchanged: 0/0
  2029 ;; Data sizes:     COMMON   BANK0   BANK1   BANK2   BANK3   BANK4   BANK5   BANK6
  2030 ;;      Params:         2       0       0       0       0       0       0       0
  2031 ;;      Locals:         1       0       0       0       0       0       0       0
  2032 ;;      Temps:          0       5       0       0       0       0       0       0
  2033 ;;      Totals:         3       5       0       0       0       0       0       0
  2034 ;;Total ram usage:        8 bytes
  2035 ;; Hardware stack levels used: 1
  2036 ;; Hardware stack levels required when called: 3
  2037 ;; This function calls:
  2038 ;;		_fputc
  2039 ;; This function is called by:
  2040 ;;		_vfprintf
  2041 ;; This function uses a non-reentrant model
  2042 ;;
  2043                           
  2044                           
  2045                           ;psect for function _vfpfcnvrt
  2046  0662                     _vfpfcnvrt:
  2047                           
  2048                           ;incstack = 0
  2049                           ; Regs used in _vfpfcnvrt: [wreg-fsr1h+status,2+status,0+pclath+cstack]
  2050                           ;vfpfcnvrt@fp stored from wreg
  2051  0662  00FC               	movwf	vfpfcnvrt@fp
  2052  0663                     l1099:
  2053                           
  2054                           ;/opt/microchip/xc8/v2.32/pic/sources/c99/common/doprnt.c: 692: static int vfpfcnvrt(FIL
      +                          E *fp, char *fmt[], va_list ap);/opt/microchip/xc8/v2.32/pic/sources/c99/common/doprnt.c
      +                          : 693: {;/opt/microchip/xc8/v2.32/pic/sources/c99/common/doprnt.c: 694:     char c, *cp,
      +                           ct[3];;/opt/microchip/xc8/v2.32/pic/sources/c99/common/doprnt.c: 695:     int done, i;;
      +                          /opt/microchip/xc8/v2.32/pic/sources/c99/common/doprnt.c: 696:     long long ll;;/opt/mi
      +                          crochip/xc8/v2.32/pic/sources/c99/common/doprnt.c: 697:     unsigned long long llu;
  2055  0663  087A               	movf	vfpfcnvrt@fmt,w
  2056  0664  0086               	movwf	6
  2057  0665  0187               	clrf	7
  2058  0666  3F40               	moviw [0]fsr1
  2059  0667  0140               	movlb	0	; select bank0
  2060  0668  00C9               	movwf	??_vfpfcnvrt
  2061  0669  3F41               	moviw [1]fsr1
  2062  066A  00CA               	movwf	??_vfpfcnvrt+1
  2063  066B  0849               	movf	??_vfpfcnvrt,w
  2064  066C  0084               	movwf	4
  2065  066D  084A               	movf	??_vfpfcnvrt+1,w
  2066  066E  0085               	movwf	5
  2067  066F  0012               	moviw fsr0++
  2068  0670  3A25               	xorlw	37
  2069  0671  1D03               	btfss	3,2
  2070  0672  2E74               	goto	u181
  2071  0673  2E75               	goto	u180
  2072  0674                     u181:
  2073  0674  2EB9               	goto	l1123
  2074  0675                     u180:
  2075  0675                     l1101:
  2076                           
  2077                           ;/opt/microchip/xc8/v2.32/pic/sources/c99/common/doprnt.c: 703:         ++*fmt;
  2078  0675  087A               	movf	vfpfcnvrt@fmt,w
  2079  0676  0086               	movwf	6
  2080  0677  0187               	clrf	7
  2081  0678  3001               	movlw	1
  2082  0679  0781               	addwf	1,f
  2083  067A  3141               	addfsr 1,1
  2084  067B  1803               	skipnc
  2085  067C  0A81               	incf	1,f
  2086  067D                     l1103:
  2087                           
  2088                           ;/opt/microchip/xc8/v2.32/pic/sources/c99/common/doprnt.c: 705:         flags = width = 
      +                          0;
  2089  067D  01C2               	clrf	_width
  2090  067E  01C3               	clrf	_width+1
  2091  067F  01C6               	clrf	_flags
  2092  0680  01C7               	clrf	_flags+1
  2093  0681                     l1105:
  2094                           
  2095                           ;/opt/microchip/xc8/v2.32/pic/sources/c99/common/doprnt.c: 706:         prec = -1;
  2096  0681  30FF               	movlw	255
  2097  0682  00C4               	movwf	_prec
  2098  0683  30FF               	movlw	255
  2099  0684  00C5               	movwf	_prec+1
  2100  0685                     l1107:
  2101                           
  2102                           ;/opt/microchip/xc8/v2.32/pic/sources/c99/common/doprnt.c: 1372:         if ((*fmt)[0] =
      +                          = '%') {
  2103  0685  087A               	movf	vfpfcnvrt@fmt,w
  2104  0686  0086               	movwf	6
  2105  0687  0187               	clrf	7
  2106  0688  3F40               	moviw [0]fsr1
  2107  0689  00C9               	movwf	??_vfpfcnvrt
  2108  068A  3F41               	moviw [1]fsr1
  2109  068B  00CA               	movwf	??_vfpfcnvrt+1
  2110  068C  0849               	movf	??_vfpfcnvrt,w
  2111  068D  0084               	movwf	4
  2112  068E  084A               	movf	??_vfpfcnvrt+1,w
  2113  068F  0085               	movwf	5
  2114  0690  0012               	moviw fsr0++
  2115  0691  3A25               	xorlw	37
  2116  0692  1D03               	btfss	3,2
  2117  0693  2E95               	goto	u191
  2118  0694  2E96               	goto	u190
  2119  0695                     u191:
  2120  0695  2EAE               	goto	l1117
  2121  0696                     u190:
  2122  0696                     l1109:
  2123                           
  2124                           ;/opt/microchip/xc8/v2.32/pic/sources/c99/common/doprnt.c: 1373:             ++*fmt;
  2125  0696  087A               	movf	vfpfcnvrt@fmt,w
  2126  0697  0086               	movwf	6
  2127  0698  0187               	clrf	7
  2128  0699  3001               	movlw	1
  2129  069A  0781               	addwf	1,f
  2130  069B  3141               	addfsr 1,1
  2131  069C  1803               	skipnc
  2132  069D  0A81               	incf	1,f
  2133  069E                     l1111:
  2134                           
  2135                           ;/opt/microchip/xc8/v2.32/pic/sources/c99/common/doprnt.c: 1374:             fputc((int)
      +                          '%', fp);
  2136  069E  3025               	movlw	37
  2137  069F  00F2               	movwf	fputc@c
  2138  06A0  3000               	movlw	0
  2139  06A1  00F3               	movwf	fputc@c+1
  2140  06A2  087C               	movf	vfpfcnvrt@fp,w
  2141  06A3  00C9               	movwf	??_vfpfcnvrt
  2142  06A4  0849               	movf	??_vfpfcnvrt,w
  2143  06A5  00F4               	movwf	fputc@fp
  2144  06A6  3186  2623  3186   	fcall	_fputc
  2145  06A9                     l1113:
  2146                           
  2147                           ;/opt/microchip/xc8/v2.32/pic/sources/c99/common/doprnt.c: 1375:             return 1;
  2148  06A9  3001               	movlw	1
  2149  06AA  00FA               	movwf	?_vfpfcnvrt
  2150  06AB  3000               	movlw	0
  2151  06AC  00FB               	movwf	?_vfpfcnvrt+1
  2152  06AD  2EDB               	goto	l755
  2153  06AE                     l1117:
  2154                           
  2155                           ;/opt/microchip/xc8/v2.32/pic/sources/c99/common/doprnt.c: 1379:         ++*fmt;
  2156  06AE  087A               	movf	vfpfcnvrt@fmt,w
  2157  06AF  0086               	movwf	6
  2158  06B0  0187               	clrf	7
  2159  06B1  3001               	movlw	1
  2160  06B2  0781               	addwf	1,f
  2161  06B3  3141               	addfsr 1,1
  2162  06B4  1803               	skipnc
  2163  06B5  0A81               	incf	1,f
  2164  06B6                     l1119:
  2165                           
  2166                           ;/opt/microchip/xc8/v2.32/pic/sources/c99/common/doprnt.c: 1380:         return 0;
  2167  06B6  01FA               	clrf	?_vfpfcnvrt
  2168  06B7  01FB               	clrf	?_vfpfcnvrt+1
  2169  06B8  2EDB               	goto	l755
  2170  06B9                     l1123:
  2171                           
  2172                           ;/opt/microchip/xc8/v2.32/pic/sources/c99/common/doprnt.c: 1384:     fputc((int)(*fmt)[0
      +                          ], fp);
  2173  06B9  087A               	movf	vfpfcnvrt@fmt,w
  2174  06BA  0086               	movwf	6
  2175  06BB  0187               	clrf	7
  2176  06BC  3F40               	moviw [0]fsr1
  2177  06BD  00C9               	movwf	??_vfpfcnvrt
  2178  06BE  3F41               	moviw [1]fsr1
  2179  06BF  00CA               	movwf	??_vfpfcnvrt+1
  2180  06C0  0849               	movf	??_vfpfcnvrt,w
  2181  06C1  0084               	movwf	4
  2182  06C2  084A               	movf	??_vfpfcnvrt+1,w
  2183  06C3  0085               	movwf	5
  2184  06C4  0800               	movf	0,w	;code access
  2185  06C5  00CB               	movwf	??_vfpfcnvrt+2
  2186  06C6  01CC               	clrf	??_vfpfcnvrt+3
  2187  06C7  084B               	movf	??_vfpfcnvrt+2,w
  2188  06C8  00F2               	movwf	fputc@c
  2189  06C9  084C               	movf	??_vfpfcnvrt+3,w
  2190  06CA  00F3               	movwf	fputc@c+1
  2191  06CB  087C               	movf	vfpfcnvrt@fp,w
  2192  06CC  00CD               	movwf	??_vfpfcnvrt+4
  2193  06CD  084D               	movf	??_vfpfcnvrt+4,w
  2194  06CE  00F4               	movwf	fputc@fp
  2195  06CF  3186  2623  3186   	fcall	_fputc
  2196  06D2                     l1125:
  2197                           
  2198                           ;/opt/microchip/xc8/v2.32/pic/sources/c99/common/doprnt.c: 1385:     ++*fmt;
  2199  06D2  087A               	movf	vfpfcnvrt@fmt,w
  2200  06D3  0086               	movwf	6
  2201  06D4  0187               	clrf	7
  2202  06D5  3001               	movlw	1
  2203  06D6  0781               	addwf	1,f
  2204  06D7  3141               	addfsr 1,1
  2205  06D8  1803               	skipnc
  2206  06D9  0A81               	incf	1,f
  2207  06DA  2EA9               	goto	l1113
  2208  06DB                     l755:
  2209  06DB  0008               	return
  2210  06DC                     __end_of_vfpfcnvrt:
  2211                           
  2212                           	psect	text4
  2213  0623                     __ptext4:	
  2214 ;; *************** function _fputc *****************
  2215 ;; Defined at:
  2216 ;;		line 8 in file "/opt/microchip/xc8/v2.32/pic/sources/c99/common/nf_fputc.c"
  2217 ;; Parameters:    Size  Location     Type
  2218 ;;  c               2    2[COMMON] int 
  2219 ;;  fp              1    4[COMMON] PTR struct _IO_FILE
  2220 ;;		 -> NULL(0), 
  2221 ;; Auto vars:     Size  Location     Type
  2222 ;;		None
  2223 ;; Return value:  Size  Location     Type
  2224 ;;                  2    2[COMMON] int 
  2225 ;; Registers used:
  2226 ;;		wreg, fsr1l, fsr1h, status,2, status,0, pclath, cstack
  2227 ;; Tracked objects:
  2228 ;;		On entry : 0/0
  2229 ;;		On exit  : 0/0
  2230 ;;		Unchanged: 0/0
  2231 ;; Data sizes:     COMMON   BANK0   BANK1   BANK2   BANK3   BANK4   BANK5   BANK6
  2232 ;;      Params:         3       0       0       0       0       0       0       0
  2233 ;;      Locals:         0       0       0       0       0       0       0       0
  2234 ;;      Temps:          5       0       0       0       0       0       0       0
  2235 ;;      Totals:         8       0       0       0       0       0       0       0
  2236 ;;Total ram usage:        8 bytes
  2237 ;; Hardware stack levels used: 1
  2238 ;; Hardware stack levels required when called: 2
  2239 ;; This function calls:
  2240 ;;		_putch
  2241 ;; This function is called by:
  2242 ;;		_vfpfcnvrt
  2243 ;; This function uses a non-reentrant model
  2244 ;;
  2245                           
  2246                           
  2247                           ;psect for function _fputc
  2248  0623                     _fputc:
  2249  0623                     l1079:	
  2250                           ;incstack = 0
  2251                           ; Regs used in _fputc: [wreg+fsr1l+fsr1h+status,2+status,0+pclath+cstack]
  2252                           
  2253  0623  0874               	movf	fputc@fp,w
  2254  0624  1903               	btfsc	3,2
  2255  0625  2E27               	goto	u141
  2256  0626  2E28               	goto	u140
  2257  0627                     u141:
  2258  0627  2E2D               	goto	l1083
  2259  0628                     u140:
  2260  0628                     l1081:
  2261  0628  0874               	movf	fputc@fp,w
  2262  0629  1D03               	btfss	3,2
  2263  062A  2E2C               	goto	u151
  2264  062B  2E2D               	goto	u150
  2265  062C                     u151:
  2266  062C  2E32               	goto	l1085
  2267  062D                     u150:
  2268  062D                     l1083:
  2269  062D  0872               	movf	fputc@c,w
  2270  062E  3185  257B  3186   	fcall	_putch
  2271  0631  2E61               	goto	l773
  2272  0632                     l1085:
  2273  0632  0874               	movf	fputc@fp,w
  2274  0633  3E03               	addlw	3
  2275  0634  0086               	movwf	6
  2276  0635  0187               	clrf	7
  2277  0636  0016               	moviw fsr1++
  2278  0637  0401               	iorwf	1,w
  2279  0638  1903               	btfsc	3,2
  2280  0639  2E3B               	goto	u161
  2281  063A  2E3C               	goto	u160
  2282  063B                     u161:
  2283  063B  2E59               	goto	l1089
  2284  063C                     u160:
  2285  063C                     l1087:
  2286  063C  0874               	movf	fputc@fp,w
  2287  063D  3E03               	addlw	3
  2288  063E  0086               	movwf	6
  2289  063F  0187               	clrf	7
  2290  0640  3F40               	moviw [0]fsr1
  2291  0641  00F5               	movwf	??_fputc
  2292  0642  3F41               	moviw [1]fsr1
  2293  0643  00F6               	movwf	??_fputc+1
  2294  0644  0A74               	incf	fputc@fp,w
  2295  0645  0086               	movwf	6
  2296  0646  0187               	clrf	7
  2297  0647  3F40               	moviw [0]fsr1
  2298  0648  00F7               	movwf	??_fputc+2
  2299  0649  3F41               	moviw [1]fsr1
  2300  064A  00F8               	movwf	??_fputc+3
  2301  064B  0878               	movf	??_fputc+3,w
  2302  064C  3A80               	xorlw	128
  2303  064D  00F9               	movwf	??_fputc+4
  2304  064E  0876               	movf	??_fputc+1,w
  2305  064F  3A80               	xorlw	128
  2306  0650  0279               	subwf	??_fputc+4,w
  2307  0651  1D03               	skipz
  2308  0652  2E55               	goto	u175
  2309  0653  0875               	movf	??_fputc,w
  2310  0654  0277               	subwf	??_fputc+2,w
  2311  0655                     u175:
  2312  0655  1803               	skipnc
  2313  0656  2E58               	goto	u171
  2314  0657  2E59               	goto	u170
  2315  0658                     u171:
  2316  0658  2E61               	goto	l773
  2317  0659                     u170:
  2318  0659                     l1089:
  2319  0659  0A74               	incf	fputc@fp,w
  2320  065A  0086               	movwf	6
  2321  065B  0187               	clrf	7
  2322  065C  3001               	movlw	1
  2323  065D  0781               	addwf	1,f
  2324  065E  3141               	addfsr 1,1
  2325  065F  1803               	skipnc
  2326  0660  0A81               	incf	1,f
  2327  0661                     l773:
  2328  0661  0008               	return
  2329  0662                     __end_of_fputc:
  2330                           
  2331                           	psect	text5
  2332  057B                     __ptext5:	
  2333 ;; *************** function _putch *****************
  2334 ;; Defined at:
  2335 ;;		line 146 in file "mcc_generated_files/eusart1.c"
  2336 ;; Parameters:    Size  Location     Type
  2337 ;;  txData          1    wreg     unsigned char 
  2338 ;; Auto vars:     Size  Location     Type
  2339 ;;  txData          1    1[COMMON] unsigned char 
  2340 ;; Return value:  Size  Location     Type
  2341 ;;                  1    wreg      void 
  2342 ;; Registers used:
  2343 ;;		wreg, status,2, status,0, pclath, cstack
  2344 ;; Tracked objects:
  2345 ;;		On entry : 0/0
  2346 ;;		On exit  : 0/0
  2347 ;;		Unchanged: 0/0
  2348 ;; Data sizes:     COMMON   BANK0   BANK1   BANK2   BANK3   BANK4   BANK5   BANK6
  2349 ;;      Params:         0       0       0       0       0       0       0       0
  2350 ;;      Locals:         1       0       0       0       0       0       0       0
  2351 ;;      Temps:          0       0       0       0       0       0       0       0
  2352 ;;      Totals:         1       0       0       0       0       0       0       0
  2353 ;;Total ram usage:        1 bytes
  2354 ;; Hardware stack levels used: 1
  2355 ;; Hardware stack levels required when called: 1
  2356 ;; This function calls:
  2357 ;;		_EUSART1_Write
  2358 ;; This function is called by:
  2359 ;;		_fputc
  2360 ;; This function uses a non-reentrant model
  2361 ;;
  2362                           
  2363                           
  2364                           ;psect for function _putch
  2365  057B                     _putch:
  2366                           
  2367                           ;incstack = 0
  2368                           ; Regs used in _putch: [wreg+status,2+status,0+pclath+cstack]
  2369                           ;putch@txData stored from wreg
  2370  057B  00F1               	movwf	putch@txData
  2371  057C                     l1077:
  2372                           
  2373                           ;mcc_generated_files/eusart1.c: 146: void putch(char txData);mcc_generated_files/eusart1
      +                          .c: 147: {;mcc_generated_files/eusart1.c: 148:     EUSART1_Write(txData);
  2374  057C  0871               	movf	putch@txData,w
  2375  057D  3185  2587  3185   	fcall	_EUSART1_Write
  2376  0580                     l153:
  2377  0580  0008               	return
  2378  0581                     __end_of_putch:
  2379                           
  2380                           	psect	text6
  2381  0587                     __ptext6:	
  2382 ;; *************** function _EUSART1_Write *****************
  2383 ;; Defined at:
  2384 ;;		line 132 in file "mcc_generated_files/eusart1.c"
  2385 ;; Parameters:    Size  Location     Type
  2386 ;;  txData          1    wreg     unsigned char 
  2387 ;; Auto vars:     Size  Location     Type
  2388 ;;  txData          1    0[COMMON] unsigned char 
  2389 ;; Return value:  Size  Location     Type
  2390 ;;                  1    wreg      void 
  2391 ;; Registers used:
  2392 ;;		wreg
  2393 ;; Tracked objects:
  2394 ;;		On entry : 0/0
  2395 ;;		On exit  : 0/0
  2396 ;;		Unchanged: 0/0
  2397 ;; Data sizes:     COMMON   BANK0   BANK1   BANK2   BANK3   BANK4   BANK5   BANK6
  2398 ;;      Params:         0       0       0       0       0       0       0       0
  2399 ;;      Locals:         1       0       0       0       0       0       0       0
  2400 ;;      Temps:          0       0       0       0       0       0       0       0
  2401 ;;      Totals:         1       0       0       0       0       0       0       0
  2402 ;;Total ram usage:        1 bytes
  2403 ;; Hardware stack levels used: 1
  2404 ;; This function calls:
  2405 ;;		Nothing
  2406 ;; This function is called by:
  2407 ;;		_putch
  2408 ;; This function uses a non-reentrant model
  2409 ;;
  2410                           
  2411                           
  2412                           ;psect for function _EUSART1_Write
  2413  0587                     _EUSART1_Write:
  2414                           
  2415                           ;incstack = 0
  2416                           ; Regs used in _EUSART1_Write: [wreg]
  2417                           ;EUSART1_Write@txData stored from wreg
  2418  0587  00F0               	movwf	EUSART1_Write@txData
  2419  0588                     l1073:
  2420  0588                     l144:	
  2421                           ;mcc_generated_files/eusart1.c: 135:     {;mcc_generated_files/eusart1.c: 136:     }
  2422                           
  2423                           
  2424                           ;mcc_generated_files/eusart1.c: 134:     while(0 == PIR1bits.TX1IF)
  2425  0588  014E               	movlb	14	; select bank14
  2426  0589  1D8D               	btfss	13,3	;volatile
  2427  058A  2D8C               	goto	u131
  2428  058B  2D8D               	goto	u130
  2429  058C                     u131:
  2430  058C  2D88               	goto	l144
  2431  058D                     u130:
  2432  058D                     l1075:
  2433                           
  2434                           ;mcc_generated_files/eusart1.c: 138:     TX1REG = txData;
  2435  058D  0870               	movf	EUSART1_Write@txData,w
  2436  058E  0142               	movlb	2	; select bank2
  2437  058F  009A               	movwf	26	;volatile
  2438  0590                     l147:
  2439  0590  0008               	return
  2440  0591                     __end_of_EUSART1_Write:
  2441                           
  2442                           	psect	text7
  2443  0591                     __ptext7:	
  2444 ;; *************** function _SYSTEM_Initialize *****************
  2445 ;; Defined at:
  2446 ;;		line 50 in file "mcc_generated_files/mcc.c"
  2447 ;; Parameters:    Size  Location     Type
  2448 ;;		None
  2449 ;; Auto vars:     Size  Location     Type
  2450 ;;		None
  2451 ;; Return value:  Size  Location     Type
  2452 ;;                  1    wreg      void 
  2453 ;; Registers used:
  2454 ;;		wreg, status,2, status,0, pclath, cstack
  2455 ;; Tracked objects:
  2456 ;;		On entry : 0/0
  2457 ;;		On exit  : 0/0
  2458 ;;		Unchanged: 0/0
  2459 ;; Data sizes:     COMMON   BANK0   BANK1   BANK2   BANK3   BANK4   BANK5   BANK6
  2460 ;;      Params:         0       0       0       0       0       0       0       0
  2461 ;;      Locals:         0       0       0       0       0       0       0       0
  2462 ;;      Temps:          0       0       0       0       0       0       0       0
  2463 ;;      Totals:         0       0       0       0       0       0       0       0
  2464 ;;Total ram usage:        0 bytes
  2465 ;; Hardware stack levels used: 1
  2466 ;; Hardware stack levels required when called: 2
  2467 ;; This function calls:
  2468 ;;		_EUSART1_Initialize
  2469 ;;		_OSCILLATOR_Initialize
  2470 ;;		_PIN_MANAGER_Initialize
  2471 ;;		_WDT_Initialize
  2472 ;; This function is called by:
  2473 ;;		_main
  2474 ;; This function uses a non-reentrant model
  2475 ;;
  2476                           
  2477                           
  2478                           ;psect for function _SYSTEM_Initialize
  2479  0591                     _SYSTEM_Initialize:
  2480  0591                     l1189:	
  2481                           ;incstack = 0
  2482                           ; Regs used in _SYSTEM_Initialize: [wreg+status,2+status,0+pclath+cstack]
  2483                           
  2484                           
  2485                           ;mcc_generated_files/mcc.c: 53:     PIN_MANAGER_Initialize();
  2486  0591  3185  25FA  3185   	fcall	_PIN_MANAGER_Initialize
  2487  0594                     l1191:
  2488                           
  2489                           ;mcc_generated_files/mcc.c: 54:     OSCILLATOR_Initialize();
  2490  0594  3185  2564  3185   	fcall	_OSCILLATOR_Initialize
  2491  0597                     l1193:
  2492                           
  2493                           ;mcc_generated_files/mcc.c: 55:     WDT_Initialize();
  2494  0597  3185  2561  3185   	fcall	_WDT_Initialize
  2495                           
  2496                           ;mcc_generated_files/mcc.c: 56:     EUSART1_Initialize();
  2497  059A  3185  25B0  3185   	fcall	_EUSART1_Initialize
  2498  059D                     l71:
  2499  059D  0008               	return
  2500  059E                     __end_of_SYSTEM_Initialize:
  2501                           
  2502                           	psect	text8
  2503  0561                     __ptext8:	
  2504 ;; *************** function _WDT_Initialize *****************
  2505 ;; Defined at:
  2506 ;;		line 69 in file "mcc_generated_files/mcc.c"
  2507 ;; Parameters:    Size  Location     Type
  2508 ;;		None
  2509 ;; Auto vars:     Size  Location     Type
  2510 ;;		None
  2511 ;; Return value:  Size  Location     Type
  2512 ;;                  1    wreg      void 
  2513 ;; Registers used:
  2514 ;;		status,2
  2515 ;; Tracked objects:
  2516 ;;		On entry : 0/0
  2517 ;;		On exit  : 0/0
  2518 ;;		Unchanged: 0/0
  2519 ;; Data sizes:     COMMON   BANK0   BANK1   BANK2   BANK3   BANK4   BANK5   BANK6
  2520 ;;      Params:         0       0       0       0       0       0       0       0
  2521 ;;      Locals:         0       0       0       0       0       0       0       0
  2522 ;;      Temps:          0       0       0       0       0       0       0       0
  2523 ;;      Totals:         0       0       0       0       0       0       0       0
  2524 ;;Total ram usage:        0 bytes
  2525 ;; Hardware stack levels used: 1
  2526 ;; This function calls:
  2527 ;;		Nothing
  2528 ;; This function is called by:
  2529 ;;		_SYSTEM_Initialize
  2530 ;; This function uses a non-reentrant model
  2531 ;;
  2532                           
  2533                           
  2534                           ;psect for function _WDT_Initialize
  2535  0561                     _WDT_Initialize:
  2536  0561                     l1163:	
  2537                           ;incstack = 0
  2538                           ; Regs used in _WDT_Initialize: [status,2]
  2539                           
  2540                           
  2541                           ;mcc_generated_files/mcc.c: 72:     WDTCON = 0x00;
  2542  0561  0150               	movlb	16	; select bank16
  2543  0562  018C               	clrf	12	;volatile
  2544  0563                     l77:
  2545  0563  0008               	return
  2546  0564                     __end_of_WDT_Initialize:
  2547                           
  2548                           	psect	text9
  2549  05FA                     __ptext9:	
  2550 ;; *************** function _PIN_MANAGER_Initialize *****************
  2551 ;; Defined at:
  2552 ;;		line 55 in file "mcc_generated_files/pin_manager.c"
  2553 ;; Parameters:    Size  Location     Type
  2554 ;;		None
  2555 ;; Auto vars:     Size  Location     Type
  2556 ;;		None
  2557 ;; Return value:  Size  Location     Type
  2558 ;;                  1    wreg      void 
  2559 ;; Registers used:
  2560 ;;		wreg, status,2
  2561 ;; Tracked objects:
  2562 ;;		On entry : 0/0
  2563 ;;		On exit  : 0/0
  2564 ;;		Unchanged: 0/0
  2565 ;; Data sizes:     COMMON   BANK0   BANK1   BANK2   BANK3   BANK4   BANK5   BANK6
  2566 ;;      Params:         0       0       0       0       0       0       0       0
  2567 ;;      Locals:         0       0       0       0       0       0       0       0
  2568 ;;      Temps:          0       0       0       0       0       0       0       0
  2569 ;;      Totals:         0       0       0       0       0       0       0       0
  2570 ;;Total ram usage:        0 bytes
  2571 ;; Hardware stack levels used: 1
  2572 ;; This function calls:
  2573 ;;		Nothing
  2574 ;; This function is called by:
  2575 ;;		_SYSTEM_Initialize
  2576 ;; This function uses a non-reentrant model
  2577 ;;
  2578                           
  2579                           
  2580                           ;psect for function _PIN_MANAGER_Initialize
  2581  05FA                     _PIN_MANAGER_Initialize:
  2582  05FA                     l1131:	
  2583                           ;incstack = 0
  2584                           ; Regs used in _PIN_MANAGER_Initialize: [wreg+status,2]
  2585                           
  2586                           
  2587                           ;mcc_generated_files/pin_manager.c: 60:     LATA = 0x00;
  2588  05FA  0140               	movlb	0	; select bank0
  2589  05FB  0198               	clrf	24	;volatile
  2590                           
  2591                           ;mcc_generated_files/pin_manager.c: 61:     LATB = 0x00;
  2592  05FC  0199               	clrf	25	;volatile
  2593                           
  2594                           ;mcc_generated_files/pin_manager.c: 62:     LATC = 0x00;
  2595  05FD  019A               	clrf	26	;volatile
  2596  05FE                     l1133:
  2597                           
  2598                           ;mcc_generated_files/pin_manager.c: 67:     TRISA = 0x3F;
  2599  05FE  303F               	movlw	63
  2600  05FF  0092               	movwf	18	;volatile
  2601  0600                     l1135:
  2602                           
  2603                           ;mcc_generated_files/pin_manager.c: 68:     TRISB = 0x20;
  2604  0600  3020               	movlw	32
  2605  0601  0093               	movwf	19	;volatile
  2606  0602                     l1137:
  2607                           
  2608                           ;mcc_generated_files/pin_manager.c: 69:     TRISC = 0x0E;
  2609  0602  300E               	movlw	14
  2610  0603  0094               	movwf	20	;volatile
  2611  0604                     l1139:
  2612                           
  2613                           ;mcc_generated_files/pin_manager.c: 74:     ANSELC = 0x0C;
  2614  0604  300C               	movlw	12
  2615  0605  017E               	movlb	62	; select bank62
  2616  0606  00CE               	movwf	78	;volatile
  2617  0607                     l1141:
  2618                           
  2619                           ;mcc_generated_files/pin_manager.c: 75:     ANSELB = 0x20;
  2620  0607  3020               	movlw	32
  2621  0608  00C3               	movwf	67	;volatile
  2622  0609                     l1143:
  2623                           
  2624                           ;mcc_generated_files/pin_manager.c: 76:     ANSELA = 0x33;
  2625  0609  3033               	movlw	51
  2626  060A  00B8               	movwf	56	;volatile
  2627                           
  2628                           ;mcc_generated_files/pin_manager.c: 81:     WPUB = 0x00;
  2629  060B  01C4               	clrf	68	;volatile
  2630                           
  2631                           ;mcc_generated_files/pin_manager.c: 82:     WPUA = 0x00;
  2632  060C  01B9               	clrf	57	;volatile
  2633                           
  2634                           ;mcc_generated_files/pin_manager.c: 83:     WPUC = 0x00;
  2635  060D  01CF               	clrf	79	;volatile
  2636                           
  2637                           ;mcc_generated_files/pin_manager.c: 88:     ODCONA = 0x00;
  2638  060E  01BA               	clrf	58	;volatile
  2639                           
  2640                           ;mcc_generated_files/pin_manager.c: 89:     ODCONB = 0x00;
  2641  060F  01C5               	clrf	69	;volatile
  2642                           
  2643                           ;mcc_generated_files/pin_manager.c: 90:     ODCONC = 0x00;
  2644  0610  01D0               	clrf	80	;volatile
  2645  0611                     l1145:
  2646                           
  2647                           ;mcc_generated_files/pin_manager.c: 95:     SLRCONA = 0x37;
  2648  0611  3037               	movlw	55
  2649  0612  00BB               	movwf	59	;volatile
  2650  0613                     l1147:
  2651                           
  2652                           ;mcc_generated_files/pin_manager.c: 96:     SLRCONB = 0xF0;
  2653  0613  30F0               	movlw	240
  2654  0614  00C6               	movwf	70	;volatile
  2655  0615                     l1149:
  2656                           
  2657                           ;mcc_generated_files/pin_manager.c: 97:     SLRCONC = 0xFF;
  2658  0615  30FF               	movlw	255
  2659  0616  00D1               	movwf	81	;volatile
  2660  0617                     l1151:
  2661                           
  2662                           ;mcc_generated_files/pin_manager.c: 102:     INLVLA = 0x3F;
  2663  0617  303F               	movlw	63
  2664  0618  00BC               	movwf	60	;volatile
  2665  0619                     l1153:
  2666                           
  2667                           ;mcc_generated_files/pin_manager.c: 103:     INLVLB = 0xF0;
  2668  0619  30F0               	movlw	240
  2669  061A  00C7               	movwf	71	;volatile
  2670  061B                     l1155:
  2671                           
  2672                           ;mcc_generated_files/pin_manager.c: 104:     INLVLC = 0xFF;
  2673  061B  30FF               	movlw	255
  2674  061C  00D2               	movwf	82	;volatile
  2675  061D                     l1157:
  2676                           
  2677                           ;mcc_generated_files/pin_manager.c: 112:     RC0PPS = 0x05;
  2678  061D  3005               	movlw	5
  2679  061E  00A0               	movwf	32	;volatile
  2680  061F                     l1159:
  2681                           
  2682                           ;mcc_generated_files/pin_manager.c: 113:     RX1PPS = 0x11;
  2683  061F  3011               	movlw	17
  2684  0620  017D               	movlb	61	; select bank61
  2685  0621  00CB               	movwf	75	;volatile
  2686  0622                     l49:
  2687  0622  0008               	return
  2688  0623                     __end_of_PIN_MANAGER_Initialize:
  2689                           
  2690                           	psect	text10
  2691  0564                     __ptext10:	
  2692 ;; *************** function _OSCILLATOR_Initialize *****************
  2693 ;; Defined at:
  2694 ;;		line 59 in file "mcc_generated_files/mcc.c"
  2695 ;; Parameters:    Size  Location     Type
  2696 ;;		None
  2697 ;; Auto vars:     Size  Location     Type
  2698 ;;		None
  2699 ;; Return value:  Size  Location     Type
  2700 ;;                  1    wreg      void 
  2701 ;; Registers used:
  2702 ;;		status,2
  2703 ;; Tracked objects:
  2704 ;;		On entry : 0/0
  2705 ;;		On exit  : 0/0
  2706 ;;		Unchanged: 0/0
  2707 ;; Data sizes:     COMMON   BANK0   BANK1   BANK2   BANK3   BANK4   BANK5   BANK6
  2708 ;;      Params:         0       0       0       0       0       0       0       0
  2709 ;;      Locals:         0       0       0       0       0       0       0       0
  2710 ;;      Temps:          0       0       0       0       0       0       0       0
  2711 ;;      Totals:         0       0       0       0       0       0       0       0
  2712 ;;Total ram usage:        0 bytes
  2713 ;; Hardware stack levels used: 1
  2714 ;; This function calls:
  2715 ;;		Nothing
  2716 ;; This function is called by:
  2717 ;;		_SYSTEM_Initialize
  2718 ;; This function uses a non-reentrant model
  2719 ;;
  2720                           
  2721                           
  2722                           ;psect for function _OSCILLATOR_Initialize
  2723  0564                     _OSCILLATOR_Initialize:
  2724  0564                     l1161:	
  2725                           ;incstack = 0
  2726                           ; Regs used in _OSCILLATOR_Initialize: [status,2]
  2727                           
  2728                           
  2729                           ;mcc_generated_files/mcc.c: 62:     OSCEN = 0x00;
  2730  0564  0151               	movlb	17	; select bank17
  2731  0565  0191               	clrf	17	;volatile
  2732                           
  2733                           ;mcc_generated_files/mcc.c: 64:     OSCFRQ = 0x00;
  2734  0566  0193               	clrf	19	;volatile
  2735                           
  2736                           ;mcc_generated_files/mcc.c: 66:     OSCTUNE = 0x00;
  2737  0567  0192               	clrf	18	;volatile
  2738  0568                     l74:
  2739  0568  0008               	return
  2740  0569                     __end_of_OSCILLATOR_Initialize:
  2741                           
  2742                           	psect	text11
  2743  05B0                     __ptext11:	
  2744 ;; *************** function _EUSART1_Initialize *****************
  2745 ;; Defined at:
  2746 ;;		line 66 in file "mcc_generated_files/eusart1.c"
  2747 ;; Parameters:    Size  Location     Type
  2748 ;;		None
  2749 ;; Auto vars:     Size  Location     Type
  2750 ;;		None
  2751 ;; Return value:  Size  Location     Type
  2752 ;;                  1    wreg      void 
  2753 ;; Registers used:
  2754 ;;		wreg, status,2, status,0, pclath, cstack
  2755 ;; Tracked objects:
  2756 ;;		On entry : 0/0
  2757 ;;		On exit  : 0/0
  2758 ;;		Unchanged: 0/0
  2759 ;; Data sizes:     COMMON   BANK0   BANK1   BANK2   BANK3   BANK4   BANK5   BANK6
  2760 ;;      Params:         0       0       0       0       0       0       0       0
  2761 ;;      Locals:         0       0       0       0       0       0       0       0
  2762 ;;      Temps:          0       0       0       0       0       0       0       0
  2763 ;;      Totals:         0       0       0       0       0       0       0       0
  2764 ;;Total ram usage:        0 bytes
  2765 ;; Hardware stack levels used: 1
  2766 ;; Hardware stack levels required when called: 1
  2767 ;; This function calls:
  2768 ;;		_EUSART1_SetErrorHandler
  2769 ;;		_EUSART1_SetFramingErrorHandler
  2770 ;;		_EUSART1_SetOverrunErrorHandler
  2771 ;; This function is called by:
  2772 ;;		_SYSTEM_Initialize
  2773 ;;		_main
  2774 ;; This function uses a non-reentrant model
  2775 ;;
  2776                           
  2777                           
  2778                           ;psect for function _EUSART1_Initialize
  2779  05B0                     _EUSART1_Initialize:
  2780  05B0                     l1165:	
  2781                           ;incstack = 0
  2782                           ; Regs used in _EUSART1_Initialize: [wreg+status,2+status,0+pclath+cstack]
  2783                           
  2784                           
  2785                           ;mcc_generated_files/eusart1.c: 71:     BAUD1CON = 0x08;
  2786  05B0  3008               	movlw	8
  2787  05B1  0142               	movlb	2	; select bank2
  2788  05B2  009F               	movwf	31	;volatile
  2789                           
  2790                           ;mcc_generated_files/eusart1.c: 74:     RC1STA = 0x90;
  2791  05B3  3090               	movlw	144
  2792  05B4  009D               	movwf	29	;volatile
  2793                           
  2794                           ;mcc_generated_files/eusart1.c: 77:     TX1STA = 0x24;
  2795  05B5  3024               	movlw	36
  2796  05B6  009E               	movwf	30	;volatile
  2797                           
  2798                           ;mcc_generated_files/eusart1.c: 80:     SP1BRGL = 0x19;
  2799  05B7  3019               	movlw	25
  2800  05B8  009B               	movwf	27	;volatile
  2801  05B9                     l1167:
  2802                           
  2803                           ;mcc_generated_files/eusart1.c: 83:     SP1BRGH = 0x00;
  2804  05B9  019C               	clrf	28	;volatile
  2805  05BA                     l1169:
  2806                           
  2807                           ;mcc_generated_files/eusart1.c: 86:     EUSART1_SetFramingErrorHandler(EUSART1_DefaultFr
      +                          amingErrorHandler);
  2808  05BA  3000               	movlw	0
  2809  05BB  00F0               	movwf	EUSART1_SetFramingErrorHandler@interruptHandler
  2810  05BC  3000               	movlw	0
  2811  05BD  00F1               	movwf	EUSART1_SetFramingErrorHandler@interruptHandler+1
  2812  05BE  3185  256F  3185   	fcall	_EUSART1_SetFramingErrorHandler
  2813  05C1                     l1171:
  2814                           
  2815                           ;mcc_generated_files/eusart1.c: 87:     EUSART1_SetOverrunErrorHandler(EUSART1_DefaultOv
      +                          errunErrorHandler);
  2816  05C1  3000               	movlw	0
  2817  05C2  00F0               	movwf	EUSART1_SetOverrunErrorHandler@interruptHandler
  2818  05C3  3000               	movlw	0
  2819  05C4  00F1               	movwf	EUSART1_SetOverrunErrorHandler@interruptHandler+1
  2820  05C5  3185  2575  3185   	fcall	_EUSART1_SetOverrunErrorHandler
  2821  05C8                     l1173:
  2822                           
  2823                           ;mcc_generated_files/eusart1.c: 88:     EUSART1_SetErrorHandler(EUSART1_DefaultErrorHand
      +                          ler);
  2824  05C8  3000               	movlw	0
  2825  05C9  00F0               	movwf	EUSART1_SetErrorHandler@interruptHandler
  2826  05CA  3000               	movlw	0
  2827  05CB  00F1               	movwf	EUSART1_SetErrorHandler@interruptHandler+1
  2828  05CC  3185  2569  3185   	fcall	_EUSART1_SetErrorHandler
  2829  05CF                     l1175:
  2830                           
  2831                           ;mcc_generated_files/eusart1.c: 90:     eusart1RxLastError.status = 0;
  2832  05CF  0140               	movlb	0	; select bank0
  2833  05D0  01C8               	clrf	_eusart1RxLastError	;volatile
  2834  05D1                     l120:
  2835  05D1  0008               	return
  2836  05D2                     __end_of_EUSART1_Initialize:
  2837                           
  2838                           	psect	text12
  2839  0575                     __ptext12:	
  2840 ;; *************** function _EUSART1_SetOverrunErrorHandler *****************
  2841 ;; Defined at:
  2842 ;;		line 170 in file "mcc_generated_files/eusart1.c"
  2843 ;; Parameters:    Size  Location     Type
  2844 ;;  interruptHan    2    0[COMMON] PTR FTN()void 
  2845 ;;		 -> EUSART1_DefaultOverrunErrorHandler(1), 
  2846 ;; Auto vars:     Size  Location     Type
  2847 ;;		None
  2848 ;; Return value:  Size  Location     Type
  2849 ;;                  1    wreg      void 
  2850 ;; Registers used:
  2851 ;;		wreg
  2852 ;; Tracked objects:
  2853 ;;		On entry : 0/0
  2854 ;;		On exit  : 0/0
  2855 ;;		Unchanged: 0/0
  2856 ;; Data sizes:     COMMON   BANK0   BANK1   BANK2   BANK3   BANK4   BANK5   BANK6
  2857 ;;      Params:         2       0       0       0       0       0       0       0
  2858 ;;      Locals:         0       0       0       0       0       0       0       0
  2859 ;;      Temps:          0       0       0       0       0       0       0       0
  2860 ;;      Totals:         2       0       0       0       0       0       0       0
  2861 ;;Total ram usage:        2 bytes
  2862 ;; Hardware stack levels used: 1
  2863 ;; This function calls:
  2864 ;;		Nothing
  2865 ;; This function is called by:
  2866 ;;		_EUSART1_Initialize
  2867 ;; This function uses a non-reentrant model
  2868 ;;
  2869                           
  2870                           
  2871                           ;psect for function _EUSART1_SetOverrunErrorHandler
  2872  0575                     _EUSART1_SetOverrunErrorHandler:
  2873  0575                     l1095:	
  2874                           ;incstack = 0
  2875                           ; Regs used in _EUSART1_SetOverrunErrorHandler: [wreg]
  2876                           
  2877                           
  2878                           ;mcc_generated_files/eusart1.c: 171:     EUSART1_OverrunErrorHandler = interruptHandler;
  2879  0575  0871               	movf	EUSART1_SetOverrunErrorHandler@interruptHandler+1,w
  2880  0576  0140               	movlb	0	; select bank0
  2881  0577  00E1               	movwf	_EUSART1_OverrunErrorHandler+1
  2882  0578  0870               	movf	EUSART1_SetOverrunErrorHandler@interruptHandler,w
  2883  0579  00E0               	movwf	_EUSART1_OverrunErrorHandler
  2884  057A                     l168:
  2885  057A  0008               	return
  2886  057B                     __end_of_EUSART1_SetOverrunErrorHandler:
  2887                           
  2888                           	psect	text13
  2889  056F                     __ptext13:	
  2890 ;; *************** function _EUSART1_SetFramingErrorHandler *****************
  2891 ;; Defined at:
  2892 ;;		line 166 in file "mcc_generated_files/eusart1.c"
  2893 ;; Parameters:    Size  Location     Type
  2894 ;;  interruptHan    2    0[COMMON] PTR FTN()void 
  2895 ;;		 -> EUSART1_DefaultFramingErrorHandler(1), 
  2896 ;; Auto vars:     Size  Location     Type
  2897 ;;		None
  2898 ;; Return value:  Size  Location     Type
  2899 ;;                  1    wreg      void 
  2900 ;; Registers used:
  2901 ;;		wreg
  2902 ;; Tracked objects:
  2903 ;;		On entry : 0/0
  2904 ;;		On exit  : 0/0
  2905 ;;		Unchanged: 0/0
  2906 ;; Data sizes:     COMMON   BANK0   BANK1   BANK2   BANK3   BANK4   BANK5   BANK6
  2907 ;;      Params:         2       0       0       0       0       0       0       0
  2908 ;;      Locals:         0       0       0       0       0       0       0       0
  2909 ;;      Temps:          0       0       0       0       0       0       0       0
  2910 ;;      Totals:         2       0       0       0       0       0       0       0
  2911 ;;Total ram usage:        2 bytes
  2912 ;; Hardware stack levels used: 1
  2913 ;; This function calls:
  2914 ;;		Nothing
  2915 ;; This function is called by:
  2916 ;;		_EUSART1_Initialize
  2917 ;; This function uses a non-reentrant model
  2918 ;;
  2919                           
  2920                           
  2921                           ;psect for function _EUSART1_SetFramingErrorHandler
  2922  056F                     _EUSART1_SetFramingErrorHandler:
  2923  056F                     l1093:	
  2924                           ;incstack = 0
  2925                           ; Regs used in _EUSART1_SetFramingErrorHandler: [wreg]
  2926                           
  2927                           
  2928                           ;mcc_generated_files/eusart1.c: 167:     EUSART1_FramingErrorHandler = interruptHandler;
  2929  056F  0871               	movf	EUSART1_SetFramingErrorHandler@interruptHandler+1,w
  2930  0570  0140               	movlb	0	; select bank0
  2931  0571  00E3               	movwf	_EUSART1_FramingErrorHandler+1
  2932  0572  0870               	movf	EUSART1_SetFramingErrorHandler@interruptHandler,w
  2933  0573  00E2               	movwf	_EUSART1_FramingErrorHandler
  2934  0574                     l165:
  2935  0574  0008               	return
  2936  0575                     __end_of_EUSART1_SetFramingErrorHandler:
  2937                           
  2938                           	psect	text14
  2939  0569                     __ptext14:	
  2940 ;; *************** function _EUSART1_SetErrorHandler *****************
  2941 ;; Defined at:
  2942 ;;		line 174 in file "mcc_generated_files/eusart1.c"
  2943 ;; Parameters:    Size  Location     Type
  2944 ;;  interruptHan    2    0[COMMON] PTR FTN()void 
  2945 ;;		 -> EUSART1_DefaultErrorHandler(1), 
  2946 ;; Auto vars:     Size  Location     Type
  2947 ;;		None
  2948 ;; Return value:  Size  Location     Type
  2949 ;;                  1    wreg      void 
  2950 ;; Registers used:
  2951 ;;		wreg
  2952 ;; Tracked objects:
  2953 ;;		On entry : 0/0
  2954 ;;		On exit  : 0/0
  2955 ;;		Unchanged: 0/0
  2956 ;; Data sizes:     COMMON   BANK0   BANK1   BANK2   BANK3   BANK4   BANK5   BANK6
  2957 ;;      Params:         2       0       0       0       0       0       0       0
  2958 ;;      Locals:         0       0       0       0       0       0       0       0
  2959 ;;      Temps:          0       0       0       0       0       0       0       0
  2960 ;;      Totals:         2       0       0       0       0       0       0       0
  2961 ;;Total ram usage:        2 bytes
  2962 ;; Hardware stack levels used: 1
  2963 ;; This function calls:
  2964 ;;		Nothing
  2965 ;; This function is called by:
  2966 ;;		_EUSART1_Initialize
  2967 ;; This function uses a non-reentrant model
  2968 ;;
  2969                           
  2970                           
  2971                           ;psect for function _EUSART1_SetErrorHandler
  2972  0569                     _EUSART1_SetErrorHandler:
  2973  0569                     l1097:	
  2974                           ;incstack = 0
  2975                           ; Regs used in _EUSART1_SetErrorHandler: [wreg]
  2976                           
  2977                           
  2978                           ;mcc_generated_files/eusart1.c: 175:     EUSART1_ErrorHandler = interruptHandler;
  2979  0569  0871               	movf	EUSART1_SetErrorHandler@interruptHandler+1,w
  2980  056A  0140               	movlb	0	; select bank0
  2981  056B  00DF               	movwf	_EUSART1_ErrorHandler+1
  2982  056C  0870               	movf	EUSART1_SetErrorHandler@interruptHandler,w
  2983  056D  00DE               	movwf	_EUSART1_ErrorHandler
  2984  056E                     l171:
  2985  056E  0008               	return
  2986  056F                     __end_of_EUSART1_SetErrorHandler:
  2987  007E                     btemp	set	126	;btemp
  2988  007E                     wtemp0	set	126
  2989                           
  2990                           	psect	config
  2991                           
  2992                           ;Config register CONFIG1 @ 0x8007
  2993                           ;	External Oscillator Mode Selection bits
  2994                           ;	FEXTOSC = OFF, Oscillator not enabled
  2995                           ;	Power-up Default Value for COSC bits
  2996                           ;	RSTOSC = HFINTOSC_1MHZ, HFINTOSC (1 MHz)
  2997                           ;	Clock Out Enable bit
  2998                           ;	CLKOUTEN = OFF, CLKOUT function is disabled; I/O function on RA4
  2999                           ;	VDD Range Analog Calibration Selection bit
  3000                           ;	VDDAR = HI, Internal analog systems are calibrated for operation between VDD = 2.3V - 
      +                          5.5V
  3001  8007                     	org	32775
  3002  8007  3FED               	dw	16365
  3003                           
  3004                           ;Config register CONFIG2 @ 0x8008
  3005                           ;	Master Clear Enable bit
  3006                           ;	MCLRE = EXTMCLR, If LVP = 0, MCLR pin is MCLR; If LVP = 1, RA3 pin function is MCLR
  3007                           ;	Power-up Timer Selection bits
  3008                           ;	PWRTS = PWRT_OFF, PWRT is disabled
  3009                           ;	WDT Operating Mode bits
  3010                           ;	WDTE = OFF, WDT disabled; SEN is ignored
  3011                           ;	Brown-out Reset Enable bits
  3012                           ;	BOREN = ON, Brown-out Reset Enabled, SBOREN bit is ignored
  3013                           ;	Brown-out Reset Voltage Selection bit
  3014                           ;	BORV = LO, Brown-out Reset Voltage (VBOR) set to 1.9V
  3015                           ;	PPSLOCKED One-Way Set Enable bit
  3016                           ;	PPS1WAY = ON, The PPSLOCKED bit can be cleared and set only once in software
  3017                           ;	Stack Overflow/Underflow Reset Enable bit
  3018                           ;	STVREN = ON, Stack Overflow or Underflow will cause a reset
  3019  8008                     	org	32776
  3020  8008  3FE7               	dw	16359
  3021                           
  3022                           ;Config register CONFIG4 @ 0x800A
  3023                           ;	Boot Block Size Selection bits
  3024                           ;	BBSIZE = BB512, 512 words boot block size
  3025                           ;	Boot Block Enable bit
  3026                           ;	BBEN = OFF, Boot Block is disabled
  3027                           ;	SAF Enable bit
  3028                           ;	SAFEN = OFF, SAF is disabled
  3029                           ;	Application Block Write Protection bit
  3030                           ;	WRTAPP = OFF, Application Block is not write-protected
  3031                           ;	Boot Block Write Protection bit
  3032                           ;	WRTB = OFF, Boot Block is not write-protected
  3033                           ;	Configuration Registers Write Protection bit
  3034                           ;	WRTC = OFF, Configuration Registers are not write-protected
  3035                           ;	Storage Area Flash (SAF) Write Protection bit
  3036                           ;	WRTSAF = OFF, SAF is not write-protected
  3037                           ;	Low Voltage Programming Enable bit
  3038                           ;	LVP = ON, Low Voltage programming enabled. MCLR/Vpp pin function is MCLR. MCLRE Config
      +                          uration bit is ignored.
  3039  800A                     	org	32778
  3040  800A  3FFF               	dw	16383
  3041                           
  3042                           ;Config register CONFIG5 @ 0x800B
  3043                           ;	User Program Flash Memory Code Protection bit
  3044                           ;	CP = OFF, User Program Flash Memory code protection is disabled
  3045  800B                     	org	32779
  3046  800B  3FFF               	dw	16383

Data Sizes:
    Strings     252
    Constant    0
    Data        0
    BSS         41
    Persistent  38
    Stack       0

Auto Spaces:
    Space          Size  Autos    Used
    COMMON           14     14      14
    BANK0            80     21      68
    BANK1            80      0       0
    BANK2            80      0       0
    BANK3            80      0       0
    BANK4            80      0       0
    BANK5            80      0       0
    BANK6            16      0       0

Pointer List with Targets:

    vfpfcnvrt@ap	PTR PTR void  size(1) Largest target is 1
		 -> printf@ap(BANK0[1]), 

    S638_IO_FILE$buffer	PTR unsigned char  size(1) Largest target is 0

    fputc@fp.buffer	PTR unsigned char  size(1) Largest target is 0

    fputc@fp	PTR struct _IO_FILE size(1) Largest target is 0
		 -> NULL(NULL[0]), 

    vfprintf@ap	PTR PTR void  size(1) Largest target is 1
		 -> printf@ap(BANK0[1]), 

    vfprintf@fp	PTR struct _IO_FILE size(1) Largest target is 0
		 -> NULL(NULL[0]), 

    vfprintf@fmt	PTR const unsigned char  size(2) Largest target is 50
		 -> STR_11(CODE[50]), STR_10(CODE[32]), STR_9(CODE[50]), STR_8(CODE[37]), 
		 -> STR_7(CODE[50]), STR_6(CODE[33]), STR_5(CODE[50]), STR_4(CODE[46]), 
		 -> STR_3(CODE[50]), STR_2(CODE[44]), STR_1(CODE[10]), 

    vfprintf@cfmt	PTR unsigned char  size(2) Largest target is 50
		 -> STR_11(CODE[50]), STR_10(CODE[32]), STR_9(CODE[50]), STR_8(CODE[37]), 
		 -> STR_7(CODE[50]), STR_6(CODE[33]), STR_5(CODE[50]), STR_4(CODE[46]), 
		 -> STR_3(CODE[50]), STR_2(CODE[44]), STR_1(CODE[10]), 

    vfpfcnvrt@fp	PTR struct _IO_FILE size(1) Largest target is 0
		 -> NULL(NULL[0]), 

    vfpfcnvrt@fmt	PTR PTR unsigned char  size(1) Largest target is 2
		 -> vfprintf@cfmt(BANK0[2]), 

    printf@fmt	PTR const unsigned char  size(2) Largest target is 50
		 -> STR_11(CODE[50]), STR_10(CODE[32]), STR_9(CODE[50]), STR_8(CODE[37]), 
		 -> STR_7(CODE[50]), STR_6(CODE[33]), STR_5(CODE[50]), STR_4(CODE[46]), 
		 -> STR_3(CODE[50]), STR_2(CODE[44]), STR_1(CODE[10]), 

    printf@ap	PTR void [1] size(1) Largest target is 2
		 -> ?_printf(BANK0[2]), 

    EUSART1_SetErrorHandler@interruptHandler	PTR FTN()void  size(2) Largest target is 1
		 -> EUSART1_DefaultErrorHandler(), 

    EUSART1_ErrorHandler	PTR FTN()void  size(2) Largest target is 1
		 -> Absolute function(), EUSART1_DefaultErrorHandler(), 

    EUSART1_SetOverrunErrorHandler@interruptHandler	PTR FTN()void  size(2) Largest target is 1
		 -> EUSART1_DefaultOverrunErrorHandler(), 

    EUSART1_OverrunErrorHandler	PTR FTN()void  size(2) Largest target is 1
		 -> Absolute function(), EUSART1_DefaultOverrunErrorHandler(), 

    EUSART1_SetFramingErrorHandler@interruptHandler	PTR FTN()void  size(2) Largest target is 1
		 -> EUSART1_DefaultFramingErrorHandler(), 

    EUSART1_FramingErrorHandler	PTR FTN()void  size(2) Largest target is 1
		 -> Absolute function(), EUSART1_DefaultFramingErrorHandler(), 


Critical Paths under _main in COMMON

    _main->_printf
    _vfprintf->_vfpfcnvrt
    _vfpfcnvrt->_fputc
    _fputc->_putch
    _putch->_EUSART1_Write
    _EUSART1_Initialize->_EUSART1_SetErrorHandler
    _EUSART1_Initialize->_EUSART1_SetFramingErrorHandler
    _EUSART1_Initialize->_EUSART1_SetOverrunErrorHandler

Critical Paths under _main in BANK0

    _main->_printf
    _printf->_vfprintf
    _vfprintf->_vfpfcnvrt

Critical Paths under _main in BANK1

    None.

Critical Paths under _main in BANK2

    None.

Critical Paths under _main in BANK3

    None.

Critical Paths under _main in BANK4

    None.

Critical Paths under _main in BANK5

    None.

Critical Paths under _main in BANK6

    None.

Call Graph Tables:

 ---------------------------------------------------------------------------------
 (Depth) Function   	        Calls       Base Space   Used Autos Params    Refs
 ---------------------------------------------------------------------------------
 (0) _main                                                 3     3      0    3122
                                             18 BANK0      3     3      0
                 _EUSART1_Initialize
                  _SYSTEM_Initialize
                             _printf
 ---------------------------------------------------------------------------------
 (1) _printf                                               8     4      4    2372
                                             13 COMMON     1     1      0
                                             13 BANK0      5     1      4
                           _vfprintf
 ---------------------------------------------------------------------------------
 (2) _vfprintf                                             8     5      3    1484
                                              5 BANK0      8     5      3
                          _vfpfcnvrt
 ---------------------------------------------------------------------------------
 (3) _vfpfcnvrt                                           40    38      2    1160
                                             10 COMMON     3     1      2
                                              0 BANK0      5     5      0
                              _fputc
 ---------------------------------------------------------------------------------
 (4) _fputc                                                8     5      3     760
                                              2 COMMON     8     5      3
                              _putch
 ---------------------------------------------------------------------------------
 (5) _putch                                                1     1      0      44
                                              1 COMMON     1     1      0
                      _EUSART1_Write
 ---------------------------------------------------------------------------------
 (6) _EUSART1_Write                                        1     1      0      22
                                              0 COMMON     1     1      0
 ---------------------------------------------------------------------------------
 (1) _SYSTEM_Initialize                                    0     0      0     294
                 _EUSART1_Initialize
              _OSCILLATOR_Initialize
             _PIN_MANAGER_Initialize
                     _WDT_Initialize
 ---------------------------------------------------------------------------------
 (2) _WDT_Initialize                                       0     0      0       0
 ---------------------------------------------------------------------------------
 (2) _PIN_MANAGER_Initialize                               0     0      0       0
 ---------------------------------------------------------------------------------
 (2) _OSCILLATOR_Initialize                                0     0      0       0
 ---------------------------------------------------------------------------------
 (2) _EUSART1_Initialize                                   0     0      0     294
            _EUSART1_SetErrorHandler
     _EUSART1_SetFramingErrorHandler
     _EUSART1_SetOverrunErrorHandler
 ---------------------------------------------------------------------------------
 (3) _EUSART1_SetOverrunErrorHandler                       2     0      2      98
                                              0 COMMON     2     0      2
 ---------------------------------------------------------------------------------
 (3) _EUSART1_SetFramingErrorHandler                       2     0      2      98
                                              0 COMMON     2     0      2
 ---------------------------------------------------------------------------------
 (3) _EUSART1_SetErrorHandler                              2     0      2      98
                                              0 COMMON     2     0      2
 ---------------------------------------------------------------------------------
 Estimated maximum stack depth 6
 ---------------------------------------------------------------------------------

 Call Graph Graphs:

 _main (ROOT)
   _EUSART1_Initialize
     _EUSART1_SetErrorHandler
     _EUSART1_SetFramingErrorHandler
     _EUSART1_SetOverrunErrorHandler
   _SYSTEM_Initialize
     _EUSART1_Initialize
     _OSCILLATOR_Initialize
     _PIN_MANAGER_Initialize
     _WDT_Initialize
   _printf
     _vfprintf
       _vfpfcnvrt
         _fputc
           _putch
             _EUSART1_Write

 Address spaces:
Name               Size   Autos  Total    Cost      Usage
BIGRAM             1F0      0       0       0        0.0%
NULL                 0      0       0       0        0.0%
CODE                 0      0       0       0        0.0%
BITCOMMON            E      0       0       1        0.0%
BITSFR0              0      0       0       1        0.0%
SFR0                 0      0       0       1        0.0%
COMMON               E      E       E       2      100.0%
BITSFR1              0      0       0       2        0.0%
SFR1                 0      0       0       2        0.0%
BITSFR2              0      0       0       3        0.0%
SFR2                 0      0       0       3        0.0%
STACK                0      0       0       3        0.0%
BITSFR3              0      0       0       4        0.0%
SFR3                 0      0       0       4        0.0%
ABS                  0      0      52       4        0.0%
BITBANK0            50      0       0       5        0.0%
BITSFR4              0      0       0       5        0.0%
SFR4                 0      0       0       5        0.0%
BANK0               50     15      44       6       85.0%
BITSFR5              0      0       0       6        0.0%
SFR5                 0      0       0       6        0.0%
BITBANK1            50      0       0       7        0.0%
BITSFR6              0      0       0       7        0.0%
SFR6                 0      0       0       7        0.0%
BANK1               50      0       0       8        0.0%
BITSFR7              0      0       0       8        0.0%
SFR7                 0      0       0       8        0.0%
BITBANK2            50      0       0       9        0.0%
BITSFR8              0      0       0       9        0.0%
SFR8                 0      0       0       9        0.0%
BANK2               50      0       0      10        0.0%
BITSFR9              0      0       0      10        0.0%
SFR9                 0      0       0      10        0.0%
BITBANK3            50      0       0      11        0.0%
BITSFR10             0      0       0      11        0.0%
SFR10                0      0       0      11        0.0%
BANK3               50      0       0      12        0.0%
BITSFR11             0      0       0      12        0.0%
SFR11                0      0       0      12        0.0%
BITBANK4            50      0       0      13        0.0%
BITSFR12             0      0       0      13        0.0%
SFR12                0      0       0      13        0.0%
BANK4               50      0       0      14        0.0%
BITSFR13             0      0       0      14        0.0%
SFR13                0      0       0      14        0.0%
BITBANK5            50      0       0      15        0.0%
BITSFR14             0      0       0      15        0.0%
SFR14                0      0       0      15        0.0%
BANK5               50      0       0      16        0.0%
BITSFR15             0      0       0      16        0.0%
SFR15                0      0       0      16        0.0%
BITBANK6            10      0       0      17        0.0%
BITSFR16             0      0       0      17        0.0%
SFR16                0      0       0      17        0.0%
BANK6               10      0       0      18        0.0%
BITSFR17             0      0       0      18        0.0%
SFR17                0      0       0      18        0.0%
BITSFR18             0      0       0      19        0.0%
SFR18                0      0       0      19        0.0%
DATA                 0      0      52      19        0.0%
BITSFR19             0      0       0      20        0.0%
SFR19                0      0       0      20        0.0%
BITSFR20             0      0       0      21        0.0%
SFR20                0      0       0      21        0.0%
BITSFR21             0      0       0      22        0.0%
SFR21                0      0       0      22        0.0%
BITSFR22             0      0       0      23        0.0%
SFR22                0      0       0      23        0.0%
BITSFR23             0      0       0      24        0.0%
SFR23                0      0       0      24        0.0%
BITSFR24             0      0       0      25        0.0%
SFR24                0      0       0      25        0.0%
BITSFR25             0      0       0      26        0.0%
SFR25                0      0       0      26        0.0%
BITSFR26             0      0       0      27        0.0%
SFR26                0      0       0      27        0.0%
BITSFR27             0      0       0      28        0.0%
SFR27                0      0       0      28        0.0%
BITSFR28             0      0       0      29        0.0%
SFR28                0      0       0      29        0.0%
BITSFR29             0      0       0      30        0.0%
SFR29                0      0       0      30        0.0%
BITSFR30             0      0       0      31        0.0%
SFR30                0      0       0      31        0.0%
BITSFR31             0      0       0      32        0.0%
SFR31                0      0       0      32        0.0%
BITSFR32             0      0       0      33        0.0%
SFR32                0      0       0      33        0.0%
BITSFR33             0      0       0      34        0.0%
SFR33                0      0       0      34        0.0%
BITSFR34             0      0       0      35        0.0%
SFR34                0      0       0      35        0.0%
BITSFR35             0      0       0      36        0.0%
SFR35                0      0       0      36        0.0%
BITSFR36             0      0       0      37        0.0%
SFR36                0      0       0      37        0.0%
BITSFR37             0      0       0      38        0.0%
SFR37                0      0       0      38        0.0%
BITSFR38             0      0       0      39        0.0%
SFR38                0      0       0      39        0.0%
BITSFR39             0      0       0      40        0.0%
SFR39                0      0       0      40        0.0%
BITSFR40             0      0       0      41        0.0%
SFR40                0      0       0      41        0.0%
BITSFR41             0      0       0      42        0.0%
SFR41                0      0       0      42        0.0%
BITSFR42             0      0       0      43        0.0%
SFR42                0      0       0      43        0.0%
BITSFR43             0      0       0      44        0.0%
SFR43                0      0       0      44        0.0%
BITSFR44             0      0       0      45        0.0%
SFR44                0      0       0      45        0.0%
BITSFR45             0      0       0      46        0.0%
SFR45                0      0       0      46        0.0%
BITSFR46             0      0       0      47        0.0%
SFR46                0      0       0      47        0.0%
BITSFR47             0      0       0      48        0.0%
SFR47                0      0       0      48        0.0%
BITSFR48             0      0       0      49        0.0%
SFR48                0      0       0      49        0.0%
BITSFR49             0      0       0      50        0.0%
SFR49                0      0       0      50        0.0%
BITSFR50             0      0       0      51        0.0%
SFR50                0      0       0      51        0.0%
BITSFR51             0      0       0      52        0.0%
SFR51                0      0       0      52        0.0%
BITSFR52             0      0       0      53        0.0%
SFR52                0      0       0      53        0.0%
BITSFR53             0      0       0      54        0.0%
SFR53                0      0       0      54        0.0%
BITSFR54             0      0       0      55        0.0%
SFR54                0      0       0      55        0.0%
BITSFR55             0      0       0      56        0.0%
SFR55                0      0       0      56        0.0%
BITSFR56             0      0       0      57        0.0%
SFR56                0      0       0      57        0.0%
BITSFR57             0      0       0      58        0.0%
SFR57                0      0       0      58        0.0%
BITSFR58             0      0       0      59        0.0%
SFR58                0      0       0      59        0.0%
BITSFR59             0      0       0      60        0.0%
SFR59                0      0       0      60        0.0%
BITSFR60             0      0       0      61        0.0%
SFR60                0      0       0      61        0.0%
BITSFR61             0      0       0      62        0.0%
SFR61                0      0       0      62        0.0%
BITSFR62             0      0       0      63        0.0%
SFR62                0      0       0      63        0.0%
BITSFR63             0      0       0      64        0.0%
SFR63                0      0       0      64        0.0%


Microchip Technology PIC Macro Assembler V2.32 build 20210201212658 
Symbol Table                                                                                   Fri May 28 16:24:44 2021

                                            l71 059D                                              l49 0622  
                                            l74 0568                                              l77 0563  
                                  main@Contador 005D                                             l120 05D1  
                                           l144 0588                                             l153 0580  
                                           l171 056E                                             l147 0590  
                                           l165 0574                                             l168 057A  
                                           l722 05AF                                             l761 05F9  
                                           l755 06DB                                             l773 0661  
                                           u200 05F5                                             u201 05F4  
                                           u130 058D                                             u131 058C  
                                           u140 0628                                             u141 0627  
                                           u150 062D                                             u151 062C  
                                           u160 063C                                             u161 063B  
                                           u170 0659                                             u171 0658  
                                           u180 0675                                             u181 0674  
                                           u237 070C                                             u190 0696  
                                           u175 0655                                             u191 0695  
                                           u247 0747                                             u257 0777  
                                           u267 07A7                                             u277 07D7  
                                           wreg 0009                                            l1101 0675  
                                          l1111 069E                                            l1103 067D  
                                          l1113 06A9                                            l1105 0681  
                                          l1131 05FA                                            l1107 0685  
                                          l1123 06B9                                            l1141 0607  
                                          l1133 05FE                                            l1125 06D2  
                                          l1109 0696                                            l1117 06AE  
                                          l1301 079D                                            l1221 06E4  
                                          l1151 0617                                            l1143 0609  
                                          l1135 0600                                            l1119 06B6  
                                          l1207 059E                                            l1311 07AE  
                                          l1303 079E                                            l1231 0701  
                                          l1223 06EB                                            l1161 0564  
                                          l1153 0619                                            l1145 0611  
                                          l1137 0602                                            l1073 0588  
                                          l1081 0628                                            l1209 05A3  
                                          l1321 07CC                                            l1313 07BD  
                                          l1305 079F                                            l1241 0706  
                                          l1233 0702                                            l1225 06FA  
                                          l1217 06DC                                            l1171 05C1  
                                          l1155 061B                                            l1147 0613  
                                          l1139 0604                                            l1163 0561  
                                          l1075 058D                                            l1083 062D  
                                          l1331 07D1                                            l1323 07CD  
                                          l1315 07C2                                            l1307 07A0  
                                          l1251 073A                                            l1243 0713  
                                          l1235 0703                                            l1227 06FF  
                                          l1219 06E2                                            l1093 056F  
                                          l1173 05C8                                            l1165 05B0  
                                          l1157 061D                                            l1149 0615  
                                          l1077 057C                                            l1085 0632  
                                          l1181 05DB                                            l1333 07DE  
                                          l1325 07CE                                            l1317 07C9  
                                          l1309 07A1                                            l1261 073F  
                                          l1253 073B                                            l1245 0722  
                                          l1237 0704                                            l1229 0700  
                                          l1095 0575                                            l1175 05CF  
                                          l1167 05B9                                            l1159 061F  
                                          l1191 0594                                            l1087 063C  
                                          l1079 0623                                            l1183 05EC  
                                          l1335 07ED                                            l1327 07CF  
                                          l1319 07CB                                            l1271 0762  
                                          l1263 0740                                            l1255 073C  
                                          l1247 0727                                            l1239 0705  
                                          l1097 0569                                            l1169 05BA  
                                          l1193 0597                                            l1089 0659  
                                          l1185 05F5                                            l1177 05D4  
                                          l1329 07D0                                            l1281 076E  
                                          l1273 0769                                            l1265 0741  
                                          l1257 073D                                            l1249 0735  
                                          l1099 0663                                            l1179 05D8  
                                          l1291 078D                                            l1283 076F  
                                          l1275 076B                                            l1267 074E  
                                          l1259 073E                                            l1189 0591  
                                          l1293 0792                                            l1285 0770  
                                          l1277 076C                                            l1269 075D  
                                          l1295 0799                                            l1287 0771  
                                          l1279 076D                                            l1297 079B  
                                          l1289 077E                                            l1299 079C  
                                          STR_1 08F2                                            STR_2 0860  
                                          STR_3 0800                                            STR_4 0832  
                                          STR_5 0800                                            STR_6 08B1  
                                          STR_7 0800                                            STR_8 088C  
                                          STR_9 0800                                            _LATA 0018  
                                          _LATB 0019                                            _LATC 001A  
                                          _WPUA 1F39                                            _WPUB 1F44  
                                          _WPUC 1F4F                                   _EUSART1_Write 0587  
                                          _dbuf 0020                                            _main 06DC  
                                          _prec 0044                                            _nout 0040  
                                          fsr0h 0005                                            fsr1h 0007  
                                          indf0 0000                                            fsr0l 0004  
                                          indf1 0001                                            fsr1l 0006  
                                          btemp 007E                                            start 0002  
                __size_of_OSCILLATOR_Initialize 0005                   __end_of_OSCILLATOR_Initialize 0569  
                                         ?_main 0070                                           STR_10 08D2  
                                         STR_11 0800                                           _OSCEN 0891  
                                  vfpfcnvrt@fmt 007A                                           _TRISA 0012  
                                         _TRISB 0013                                           _TRISC 0014  
                                         _flags 0046                                  _WDT_Initialize 0561  
                                         _fputc 0623                                           _width 0042  
                                         _putch 057B                                  ?_EUSART1_Write 0070  
                                         status 0003                                           wtemp0 007E  
            _EUSART1_DefaultFramingErrorHandler 0000                                 __initialization 07F5  
                    __end_of_EUSART1_Initialize 05D2                                    __end_of_main 07F5  
                                        ??_main 005B                          __end_of_WDT_Initialize 0564  
                                        ?_fputc 0072                                          _ANSELA 1F38  
                                        ?_putch 0070                                          _ANSELB 1F43  
                                        _ANSELC 1F4E                                          _RC1REG 0119  
                                        _RC0PPS 1F20                                          _RC1STA 011D  
                                        _ODCONA 1F3A                                          _ODCONB 1F45  
                                        _ODCONC 1F50                                          _INLVLA 1F3C  
                                        _INLVLB 1F47                                          _INLVLC 1F52  
                                        _OSCFRQ 0893                                          _RX1PPS 1ECB  
                                        _TX1REG 011A                                          _WDTCON 080C  
                                        _TX1STA 011E                                    vfprintf@cfmt 0054  
                      ?_EUSART1_SetErrorHandler 0070                                          _printf 059E  
              ??_EUSART1_SetOverrunErrorHandler 0072                 ?_EUSART1_SetOverrunErrorHandler 0070  
                                        fputc@c 0072                                 ?_WDT_Initialize 0070  
                              __end_of_vfprintf 05FA                                 ??_EUSART1_Write 0070  
                             _SYSTEM_Initialize 0591                         __end_of__initialization 07FD  
                            ?_SYSTEM_Initialize 0070                                  __pcstackCOMMON 0070  
                           ??_SYSTEM_Initialize 0072                                   __end_of_fputc 0662  
                                 __end_of_putch 0581                                         ??_fputc 0075  
                     __end_of_SYSTEM_Initialize 059E                                         ??_putch 0071  
                                    __pbssBANK0 0020                 __end_of_EUSART1_SetErrorHandler 056F  
                                    __pmaintext 06DC                                         ?_printf 0056  
        __end_of_EUSART1_SetFramingErrorHandler 0575         __size_of_EUSART1_SetFramingErrorHandler 0006  
                _EUSART1_SetFramingErrorHandler 056F                                         _SP1BRGH 011C  
                                       _SP1BRGL 011B                              __size_of_vfpfcnvrt 007A  
                                       _OSCTUNE 0892                                         _SLRCONA 1F3B  
                                       _SLRCONB 1F46                                         _SLRCONC 1F51  
                                     ?_vfprintf 004E                                         __ptext1 059E  
                                       __ptext2 05D2                                         __ptext3 0662  
                                       __ptext4 0623                                         __ptext5 057B  
                                       __ptext6 0587                                         __ptext7 0591  
                                       __ptext8 0561                                         __ptext9 05FA  
                               __size_of_printf 0012                           _OSCILLATOR_Initialize 0564  
                            _EUSART1_Initialize 05B0                        ??_PIN_MANAGER_Initialize 0070  
                    __size_of_SYSTEM_Initialize 000D                                         clrloop0 0582  
                          end_of_initialization 07FD                             ?_EUSART1_Initialize 0070  
                                       fputc@fp 0074                     _EUSART1_OverrunErrorHandler 0060  
                             __end_of_vfpfcnvrt 06DC                                      ??_vfprintf 0051  
                          ??_EUSART1_Initialize 0072                                ??_WDT_Initialize 0070  
                                     _PORTBbits 000D                                       _PORTCbits 000E  
              __size_of_EUSART1_SetErrorHandler 0006                             EUSART1_Write@txData 0070  
                                   vfpfcnvrt@ap 007B                                     vfpfcnvrt@fp 007C  
                        ?_OSCILLATOR_Initialize 0070                                  __end_of_printf 05B0  
                           start_initialization 07F5                 __size_of_PIN_MANAGER_Initialize 0029  
                                   putch@txData 0071                           __end_of_EUSART1_Write 0591  
                                   vfprintf@fmt 004E                                        ??_printf 007D  
                                     ___latbits 0001                                   __pcstackBANK0 0049  
              ??_EUSART1_SetFramingErrorHandler 0072                 ?_EUSART1_SetFramingErrorHandler 0070  
                                     __pnvBANK0 005E                          _PIN_MANAGER_Initialize 05FA  
                             __size_of_vfprintf 0028                                        _BAUD1CON 011F  
            _EUSART1_DefaultOverrunErrorHandler 0000                            _EUSART1_ErrorHandler 005E  
                       _EUSART1_SetErrorHandler 0569                                  __size_of_fputc 003F  
                                __size_of_putch 0006         EUSART1_SetErrorHandler@interruptHandler 0070  
                                     clear_ram0 0581                                        _PIR1bits 070D  
                                     _vfpfcnvrt 0662                                      vfprintf@ap 0050  
                                    vfprintf@fp 0053                         ??_OSCILLATOR_Initialize 0070  
                   __size_of_EUSART1_Initialize 0022                                      ?_vfpfcnvrt 007A  
                     ??_EUSART1_SetErrorHandler 0072                     _EUSART1_DefaultErrorHandler 0000  
                                      __ptext10 0564                                        __ptext11 05B0  
                                      __ptext12 0575                                        __ptext13 056F  
                                      __ptext14 0569                                   __size_of_main 0119  
                                    _RC1STAbits 011D  EUSART1_SetOverrunErrorHandler@interruptHandler 0070  
                                      _vfprintf 05D2                                       printf@fmt 0056  
                   _EUSART1_FramingErrorHandler 0062                         __size_of_WDT_Initialize 0003  
                       ?_PIN_MANAGER_Initialize 0070          __end_of_EUSART1_SetOverrunErrorHandler 057B  
       __size_of_EUSART1_SetOverrunErrorHandler 0006                  _EUSART1_SetOverrunErrorHandler 0575  
                                      printf@ap 005A  EUSART1_SetFramingErrorHandler@interruptHandler 0070  
                                   ??_vfpfcnvrt 0049                          __size_of_EUSART1_Write 000A  
                            _eusart1RxLastError 0048                                   __pstringtext1 0800  
                                 __pstringtext2 0832                                   __pstringtext3 0860  
                                 __pstringtext4 088C                                   __pstringtext5 08B1  
                                 __pstringtext6 08D2                                   __pstringtext7 08F2  
                                 __pstringtext8 0000                                      _TX1STAbits 011E  
                __end_of_PIN_MANAGER_Initialize 0623  
